
main:     file format elf32-tradlittlemips


Disassembly of section .text:

a0800200 <_start>:
a0800200:	27bdffe8 	addiu	sp,sp,-24
a0800204:	afbf0014 	sw	ra,20(sp)
a0800208:	afbe0010 	sw	s8,16(sp)
a080020c:	03a0f021 	move	s8,sp
a0800210:	0c2000b4 	jal	a08002d0 <asm_start>
a0800214:	00000000 	nop
a0800218:	0c2006d6 	jal	a0801b58 <init_exception>
a080021c:	00000000 	nop
a0800220:	3c02a080 	lui	v0,0xa080
a0800224:	244463e0 	addiu	a0,v0,25568
a0800228:	0c2015bd 	jal	a08056f4 <printk>
a080022c:	00000000 	nop
a0800230:	0c200505 	jal	a0801414 <init_memory>
a0800234:	00000000 	nop
a0800238:	3c02a080 	lui	v0,0xa080
a080023c:	2444641c 	addiu	a0,v0,25628
a0800240:	0c2015bd 	jal	a08056f4 <printk>
a0800244:	00000000 	nop
a0800248:	0c20072c 	jal	a0801cb0 <init_syscall>
a080024c:	00000000 	nop
a0800250:	3c02a080 	lui	v0,0xa080
a0800254:	24446450 	addiu	a0,v0,25680
a0800258:	0c2015bd 	jal	a08056f4 <printk>
a080025c:	00000000 	nop
a0800260:	0c20051b 	jal	a080146c <init_pcb>
a0800264:	00000000 	nop
a0800268:	3c02a080 	lui	v0,0xa080
a080026c:	24446480 	addiu	a0,v0,25728
a0800270:	0c2015bd 	jal	a08056f4 <printk>
a0800274:	00000000 	nop
a0800278:	0c2003d5 	jal	a0800f54 <init_screen>
a080027c:	00000000 	nop
a0800280:	3c02a080 	lui	v0,0xa080
a0800284:	244464a8 	addiu	a0,v0,25768
a0800288:	0c2015bd 	jal	a08056f4 <printk>
a080028c:	00000000 	nop
a0800290:	00002021 	move	a0,zero
a0800294:	2405001e 	li	a1,30
a0800298:	0c2003e7 	jal	a0800f9c <screen_clear>
a080029c:	00000000 	nop
a08002a0:	3c02a080 	lui	v0,0xa080
a08002a4:	8c426828 	lw	v0,26664(v0)
a08002a8:	00402021 	move	a0,v0
a08002ac:	0c2000ca 	jal	a0800328 <SET_CP0_STATUS>
a08002b0:	00000000 	nop
a08002b4:	3c02a080 	lui	v0,0xa080
a08002b8:	ac407b10 	sw	zero,31504(v0)
a08002bc:	082000af 	j	a08002bc <_start+0xbc>
a08002c0:	00000000 	nop
	...

a08002d0 <asm_start>:
a08002d0:	40806000 	mtc0	zero,c0_sr
a08002d4:	00000000 	nop
a08002d8:	40809000 	mtc0	zero,c0_watchlo
a08002dc:	00000000 	nop
a08002e0:	40809800 	mtc0	zero,c0_watchhi
a08002e4:	00000000 	nop
a08002e8:	40088000 	mfc0	t0,c0_config
a08002ec:	2401fff8 	li	at,-8
a08002f0:	01014024 	and	t0,t0,at
a08002f4:	35080002 	ori	t0,t0,0x2
a08002f8:	40888000 	mtc0	t0,c0_config
a08002fc:	03e00008 	jr	ra
a0800300:	00000000 	nop

a0800304 <GET_CP0_STATUS>:
a0800304:	40026000 	mfc0	v0,c0_sr
a0800308:	03e00008 	jr	ra
a080030c:	00000000 	nop

a0800310 <GET_CP0_COUNT>:
a0800310:	40024800 	mfc0	v0,c0_count
a0800314:	03e00008 	jr	ra
a0800318:	00000000 	nop

a080031c <GET_CP0_COMPARE>:
a080031c:	40025800 	mfc0	v0,c0_compare
a0800320:	03e00008 	jr	ra
a0800324:	00000000 	nop

a0800328 <SET_CP0_STATUS>:
a0800328:	40846000 	mtc0	a0,c0_sr
a080032c:	03e00008 	jr	ra
a0800330:	00000000 	nop

a0800334 <SET_CP0_COUNT>:
a0800334:	40844800 	mtc0	a0,c0_count
a0800338:	03e00008 	jr	ra
a080033c:	00000000 	nop

a0800340 <SET_CP0_COMPARE>:
a0800340:	40845800 	mtc0	a0,c0_compare
a0800344:	03e00008 	jr	ra
a0800348:	00000000 	nop

a080034c <get_cp0_entryhi>:
a080034c:	40025000 	mfc0	v0,c0_entryhi
a0800350:	03e00008 	jr	ra
a0800354:	00000000 	nop
a0800358:	00000000 	nop

a080035c <get_cp0_context>:
a080035c:	40022000 	mfc0	v0,c0_context
a0800360:	03e00008 	jr	ra
a0800364:	00000000 	nop
a0800368:	00000000 	nop

a080036c <set_cp0_entryhi>:
a080036c:	40845000 	mtc0	a0,c0_entryhi
a0800370:	03e00008 	jr	ra
a0800374:	00000000 	nop
a0800378:	00000000 	nop

a080037c <get_cp0_entrylo0>:
a080037c:	40021000 	mfc0	v0,c0_entrylo0
a0800380:	03e00008 	jr	ra
a0800384:	00000000 	nop
a0800388:	00000000 	nop

a080038c <set_cp0_entrylo0>:
a080038c:	40841000 	mtc0	a0,c0_entrylo0
a0800390:	03e00008 	jr	ra
a0800394:	00000000 	nop
a0800398:	00000000 	nop

a080039c <get_cp0_entrylo1>:
a080039c:	40021800 	mfc0	v0,c0_entrylo1
a08003a0:	03e00008 	jr	ra
a08003a4:	00000000 	nop
a08003a8:	00000000 	nop

a08003ac <set_cp0_entrylo1>:
a08003ac:	40841800 	mtc0	a0,c0_entrylo1
a08003b0:	03e00008 	jr	ra
a08003b4:	00000000 	nop
a08003b8:	00000000 	nop

a08003bc <get_cp0_index>:
a08003bc:	40020000 	mfc0	v0,c0_index
a08003c0:	03e00008 	jr	ra
a08003c4:	00000000 	nop
a08003c8:	00000000 	nop

a08003cc <set_cp0_index>:
a08003cc:	40840000 	mtc0	a0,c0_index
a08003d0:	03e00008 	jr	ra
a08003d4:	00000000 	nop
a08003d8:	00000000 	nop

a08003dc <set_cp0_pagemask>:
a08003dc:	40842800 	mtc0	a0,c0_pagemask
a08003e0:	03e00008 	jr	ra
a08003e4:	00000000 	nop
a08003e8:	00000000 	nop

a08003ec <TLBexception_handler_entry>:
a08003ec:	401a6000 	mfc0	k0,c0_sr
a08003f0:	241bfffe 	li	k1,-2
a08003f4:	035bd024 	and	k0,k0,k1
a08003f8:	409a6000 	mtc0	k0,c0_sr
a08003fc:	3c1aa080 	lui	k0,0xa080
a0800400:	8f5a684c 	lw	k0,26700(k0)
a0800404:	235a009c 	addi	k0,k0,156
a0800408:	af400000 	sw	zero,0(k0)
a080040c:	af410004 	sw	at,4(k0)
a0800410:	af420008 	sw	v0,8(k0)
a0800414:	af43000c 	sw	v1,12(k0)
a0800418:	af440010 	sw	a0,16(k0)
a080041c:	af450014 	sw	a1,20(k0)
a0800420:	af460018 	sw	a2,24(k0)
a0800424:	af47001c 	sw	a3,28(k0)
a0800428:	af480020 	sw	t0,32(k0)
a080042c:	af490024 	sw	t1,36(k0)
a0800430:	af4a0028 	sw	t2,40(k0)
a0800434:	af4b002c 	sw	t3,44(k0)
a0800438:	af4c0030 	sw	t4,48(k0)
a080043c:	af4d0034 	sw	t5,52(k0)
a0800440:	af4e0038 	sw	t6,56(k0)
a0800444:	af4f003c 	sw	t7,60(k0)
a0800448:	af500040 	sw	s0,64(k0)
a080044c:	af510044 	sw	s1,68(k0)
a0800450:	af520048 	sw	s2,72(k0)
a0800454:	af53004c 	sw	s3,76(k0)
a0800458:	af540050 	sw	s4,80(k0)
a080045c:	af550054 	sw	s5,84(k0)
a0800460:	af560058 	sw	s6,88(k0)
a0800464:	af57005c 	sw	s7,92(k0)
a0800468:	af580060 	sw	t8,96(k0)
a080046c:	af590064 	sw	t9,100(k0)
a0800470:	af5c0070 	sw	gp,112(k0)
a0800474:	af5d0074 	sw	sp,116(k0)
a0800478:	af5e0078 	sw	s8,120(k0)
a080047c:	af5f007c 	sw	ra,124(k0)
a0800480:	0000d810 	mfhi	k1
a0800484:	af5b0084 	sw	k1,132(k0)
a0800488:	0000d812 	mflo	k1
a080048c:	af5b0088 	sw	k1,136(k0)
a0800490:	401b4000 	mfc0	k1,c0_badvaddr
a0800494:	00000000 	nop
a0800498:	af5b008c 	sw	k1,140(k0)
a080049c:	401b7000 	mfc0	k1,c0_epc
a08004a0:	00000000 	nop
a08004a4:	af5b0094 	sw	k1,148(k0)
a08004a8:	40802800 	mtc0	zero,c0_pagemask
a08004ac:	0c200a9a 	jal	a0802a68 <do_TLB_Helper>
a08004b0:	00000000 	nop
a08004b4:	00000000 	nop
a08004b8:	3c1aa080 	lui	k0,0xa080
a08004bc:	8f5a684c 	lw	k0,26700(k0)
a08004c0:	235a009c 	addi	k0,k0,156
a08004c4:	8f400000 	lw	zero,0(k0)
a08004c8:	8f410004 	lw	at,4(k0)
a08004cc:	8f420008 	lw	v0,8(k0)
a08004d0:	8f43000c 	lw	v1,12(k0)
a08004d4:	8f440010 	lw	a0,16(k0)
a08004d8:	8f450014 	lw	a1,20(k0)
a08004dc:	8f460018 	lw	a2,24(k0)
a08004e0:	8f47001c 	lw	a3,28(k0)
a08004e4:	8f480020 	lw	t0,32(k0)
a08004e8:	8f490024 	lw	t1,36(k0)
a08004ec:	8f4a0028 	lw	t2,40(k0)
a08004f0:	8f4b002c 	lw	t3,44(k0)
a08004f4:	8f4c0030 	lw	t4,48(k0)
a08004f8:	8f4d0034 	lw	t5,52(k0)
a08004fc:	8f4e0038 	lw	t6,56(k0)
a0800500:	8f4f003c 	lw	t7,60(k0)
a0800504:	8f500040 	lw	s0,64(k0)
a0800508:	8f510044 	lw	s1,68(k0)
a080050c:	8f520048 	lw	s2,72(k0)
a0800510:	8f53004c 	lw	s3,76(k0)
a0800514:	8f540050 	lw	s4,80(k0)
a0800518:	8f550054 	lw	s5,84(k0)
a080051c:	8f560058 	lw	s6,88(k0)
a0800520:	8f57005c 	lw	s7,92(k0)
a0800524:	8f580060 	lw	t8,96(k0)
a0800528:	8f590064 	lw	t9,100(k0)
a080052c:	8f5c0070 	lw	gp,112(k0)
a0800530:	8f5d0074 	lw	sp,116(k0)
a0800534:	8f5e0078 	lw	s8,120(k0)
a0800538:	8f5f007c 	lw	ra,124(k0)
a080053c:	8f5b0084 	lw	k1,132(k0)
a0800540:	03600011 	mthi	k1
a0800544:	8f5b0088 	lw	k1,136(k0)
a0800548:	03600013 	mtlo	k1
a080054c:	8f5b008c 	lw	k1,140(k0)
a0800550:	409b4000 	mtc0	k1,c0_badvaddr
a0800554:	8f5b0094 	lw	k1,148(k0)
a0800558:	409b7000 	mtc0	k1,c0_epc
a080055c:	00000000 	nop
a0800560:	401a6000 	mfc0	k0,c0_sr
a0800564:	00000000 	nop
a0800568:	375a0001 	ori	k0,k0,0x1
a080056c:	409a6000 	mtc0	k0,c0_sr
a0800570:	42000018 	eret
a0800574:	00000000 	nop

a0800578 <do_scheduler>:
a0800578:	3c1aa080 	lui	k0,0xa080
a080057c:	8f5a684c 	lw	k0,26700(k0)
a0800580:	235a0000 	addi	k0,k0,0
a0800584:	af400000 	sw	zero,0(k0)
a0800588:	af410004 	sw	at,4(k0)
a080058c:	af420008 	sw	v0,8(k0)
a0800590:	af43000c 	sw	v1,12(k0)
a0800594:	af440010 	sw	a0,16(k0)
a0800598:	af450014 	sw	a1,20(k0)
a080059c:	af460018 	sw	a2,24(k0)
a08005a0:	af47001c 	sw	a3,28(k0)
a08005a4:	af480020 	sw	t0,32(k0)
a08005a8:	af490024 	sw	t1,36(k0)
a08005ac:	af4a0028 	sw	t2,40(k0)
a08005b0:	af4b002c 	sw	t3,44(k0)
a08005b4:	af4c0030 	sw	t4,48(k0)
a08005b8:	af4d0034 	sw	t5,52(k0)
a08005bc:	af4e0038 	sw	t6,56(k0)
a08005c0:	af4f003c 	sw	t7,60(k0)
a08005c4:	af500040 	sw	s0,64(k0)
a08005c8:	af510044 	sw	s1,68(k0)
a08005cc:	af520048 	sw	s2,72(k0)
a08005d0:	af53004c 	sw	s3,76(k0)
a08005d4:	af540050 	sw	s4,80(k0)
a08005d8:	af550054 	sw	s5,84(k0)
a08005dc:	af560058 	sw	s6,88(k0)
a08005e0:	af57005c 	sw	s7,92(k0)
a08005e4:	af580060 	sw	t8,96(k0)
a08005e8:	af590064 	sw	t9,100(k0)
a08005ec:	af5c0070 	sw	gp,112(k0)
a08005f0:	af5d0074 	sw	sp,116(k0)
a08005f4:	af5e0078 	sw	s8,120(k0)
a08005f8:	af5f007c 	sw	ra,124(k0)
a08005fc:	0000d810 	mfhi	k1
a0800600:	af5b0084 	sw	k1,132(k0)
a0800604:	0000d812 	mflo	k1
a0800608:	af5b0088 	sw	k1,136(k0)
a080060c:	401b4000 	mfc0	k1,c0_badvaddr
a0800610:	00000000 	nop
a0800614:	af5b008c 	sw	k1,140(k0)
a0800618:	401b7000 	mfc0	k1,c0_epc
a080061c:	00000000 	nop
a0800620:	0c200b84 	jal	a0802e10 <scheduler>
a0800624:	af5b0094 	sw	k1,148(k0)
a0800628:	3c1aa080 	lui	k0,0xa080
a080062c:	8f5a684c 	lw	k0,26700(k0)
a0800630:	235a0000 	addi	k0,k0,0
a0800634:	8f400000 	lw	zero,0(k0)
a0800638:	8f410004 	lw	at,4(k0)
a080063c:	8f420008 	lw	v0,8(k0)
a0800640:	8f43000c 	lw	v1,12(k0)
a0800644:	8f440010 	lw	a0,16(k0)
a0800648:	8f450014 	lw	a1,20(k0)
a080064c:	8f460018 	lw	a2,24(k0)
a0800650:	8f47001c 	lw	a3,28(k0)
a0800654:	8f480020 	lw	t0,32(k0)
a0800658:	8f490024 	lw	t1,36(k0)
a080065c:	8f4a0028 	lw	t2,40(k0)
a0800660:	8f4b002c 	lw	t3,44(k0)
a0800664:	8f4c0030 	lw	t4,48(k0)
a0800668:	8f4d0034 	lw	t5,52(k0)
a080066c:	8f4e0038 	lw	t6,56(k0)
a0800670:	8f4f003c 	lw	t7,60(k0)
a0800674:	8f500040 	lw	s0,64(k0)
a0800678:	8f510044 	lw	s1,68(k0)
a080067c:	8f520048 	lw	s2,72(k0)
a0800680:	8f53004c 	lw	s3,76(k0)
a0800684:	8f540050 	lw	s4,80(k0)
a0800688:	8f550054 	lw	s5,84(k0)
a080068c:	8f560058 	lw	s6,88(k0)
a0800690:	8f57005c 	lw	s7,92(k0)
a0800694:	8f580060 	lw	t8,96(k0)
a0800698:	8f590064 	lw	t9,100(k0)
a080069c:	8f5c0070 	lw	gp,112(k0)
a08006a0:	8f5d0074 	lw	sp,116(k0)
a08006a4:	8f5e0078 	lw	s8,120(k0)
a08006a8:	8f5f007c 	lw	ra,124(k0)
a08006ac:	8f5b0084 	lw	k1,132(k0)
a08006b0:	03600011 	mthi	k1
a08006b4:	8f5b0088 	lw	k1,136(k0)
a08006b8:	03600013 	mtlo	k1
a08006bc:	8f5b008c 	lw	k1,140(k0)
a08006c0:	409b4000 	mtc0	k1,c0_badvaddr
a08006c4:	8f5b0094 	lw	k1,148(k0)
a08006c8:	409b7000 	mtc0	k1,c0_epc
a08006cc:	03e00008 	jr	ra
a08006d0:	00000000 	nop

a08006d4 <exception_handler_entry>:
a08006d4:	401a6000 	mfc0	k0,c0_sr
a08006d8:	241bfffe 	li	k1,-2
a08006dc:	035bd024 	and	k0,k0,k1
a08006e0:	409a6000 	mtc0	k0,c0_sr
a08006e4:	3c1aa080 	lui	k0,0xa080
a08006e8:	8f5a684c 	lw	k0,26700(k0)
a08006ec:	235a009c 	addi	k0,k0,156
a08006f0:	af400000 	sw	zero,0(k0)
a08006f4:	af410004 	sw	at,4(k0)
a08006f8:	af420008 	sw	v0,8(k0)
a08006fc:	af43000c 	sw	v1,12(k0)
a0800700:	af440010 	sw	a0,16(k0)
a0800704:	af450014 	sw	a1,20(k0)
a0800708:	af460018 	sw	a2,24(k0)
a080070c:	af47001c 	sw	a3,28(k0)
a0800710:	af480020 	sw	t0,32(k0)
a0800714:	af490024 	sw	t1,36(k0)
a0800718:	af4a0028 	sw	t2,40(k0)
a080071c:	af4b002c 	sw	t3,44(k0)
a0800720:	af4c0030 	sw	t4,48(k0)
a0800724:	af4d0034 	sw	t5,52(k0)
a0800728:	af4e0038 	sw	t6,56(k0)
a080072c:	af4f003c 	sw	t7,60(k0)
a0800730:	af500040 	sw	s0,64(k0)
a0800734:	af510044 	sw	s1,68(k0)
a0800738:	af520048 	sw	s2,72(k0)
a080073c:	af53004c 	sw	s3,76(k0)
a0800740:	af540050 	sw	s4,80(k0)
a0800744:	af550054 	sw	s5,84(k0)
a0800748:	af560058 	sw	s6,88(k0)
a080074c:	af57005c 	sw	s7,92(k0)
a0800750:	af580060 	sw	t8,96(k0)
a0800754:	af590064 	sw	t9,100(k0)
a0800758:	af5c0070 	sw	gp,112(k0)
a080075c:	af5d0074 	sw	sp,116(k0)
a0800760:	af5e0078 	sw	s8,120(k0)
a0800764:	af5f007c 	sw	ra,124(k0)
a0800768:	0000d810 	mfhi	k1
a080076c:	af5b0084 	sw	k1,132(k0)
a0800770:	0000d812 	mflo	k1
a0800774:	af5b0088 	sw	k1,136(k0)
a0800778:	401b4000 	mfc0	k1,c0_badvaddr
a080077c:	00000000 	nop
a0800780:	af5b008c 	sw	k1,140(k0)
a0800784:	401b7000 	mfc0	k1,c0_epc
a0800788:	00000000 	nop
a080078c:	af5b0094 	sw	k1,148(k0)
a0800790:	401a6800 	mfc0	k0,c0_cause
a0800794:	00000000 	nop
a0800798:	335a007c 	andi	k0,k0,0x7c
a080079c:	3c1ba083 	lui	k1,0xa083
a08007a0:	277b7cd8 	addiu	k1,k1,31960
a08007a4:	035bd020 	add	k0,k0,k1
a08007a8:	8f5a0000 	lw	k0,0(k0)
a08007ac:	03400008 	jr	k0
a08007b0:	00000000 	nop

a08007b4 <handle_int>:
a08007b4:	40046000 	mfc0	a0,c0_sr
a08007b8:	40056800 	mfc0	a1,c0_cause
a08007bc:	0c2007ec 	jal	a0801fb0 <interrupt_helper>
a08007c0:	23bdfff8 	addi	sp,sp,-8
a08007c4:	23bd0008 	addi	sp,sp,8

a08007c8 <reset_cp0>:
a08007c8:	40804800 3c1a0001 375a86a0 409a5800     .H.@...<..Z7.X.@
a08007d8:	3c1aa080 8f5a684c 235a009c 8f400000     ...<LhZ...Z#..@.
a08007e8:	8f410004 8f420008 8f43000c 8f440010     ..A...B...C...D.
a08007f8:	8f450014 8f460018 8f47001c 8f480020     ..E...F...G. .H.
a0800808:	8f490024 8f4a0028 8f4b002c 8f4c0030     $.I.(.J.,.K.0.L.
a0800818:	8f4d0034 8f4e0038 8f4f003c 8f500040     4.M.8.N.<.O.@.P.
a0800828:	8f510044 8f520048 8f53004c 8f540050     D.Q.H.R.L.S.P.T.
a0800838:	8f550054 8f560058 8f57005c 8f580060     T.U.X.V.\.W.`.X.
a0800848:	8f590064 8f5c0070 8f5d0074 8f5e0078     d.Y.p.\.t.].x.^.
a0800858:	8f5f007c 8f5b0084 03600011 8f5b0088     |._...[...`...[.
a0800868:	03600013 8f5b008c 409b4000 8f5b0094     ..`...[..@.@..[.
a0800878:	409b7000 00000000 401a6000 00000000     .p.@.....`.@....
a0800888:	375a0001 409a6000 42000018 00000000     ..Z7.`.@...B....

a0800898 <handle_syscall>:
a0800898:	00c03821 	move	a3,a2
a080089c:	00a03021 	move	a2,a1
a08008a0:	00802821 	move	a1,a0
a08008a4:	00402021 	move	a0,v0
a08008a8:	0c201088 	jal	a0804220 <system_call_helper>
a08008ac:	27bdfff0 	addiu	sp,sp,-16
a08008b0:	27bd0010 	addiu	sp,sp,16
a08008b4:	3c1aa080 	lui	k0,0xa080
a08008b8:	8f5a684c 	lw	k0,26700(k0)
a08008bc:	235a009c 	addi	k0,k0,156
a08008c0:	8f400000 	lw	zero,0(k0)
a08008c4:	8f410004 	lw	at,4(k0)
a08008c8:	8f420008 	lw	v0,8(k0)
a08008cc:	8f43000c 	lw	v1,12(k0)
a08008d0:	8f440010 	lw	a0,16(k0)
a08008d4:	8f450014 	lw	a1,20(k0)
a08008d8:	8f460018 	lw	a2,24(k0)
a08008dc:	8f47001c 	lw	a3,28(k0)
a08008e0:	8f480020 	lw	t0,32(k0)
a08008e4:	8f490024 	lw	t1,36(k0)
a08008e8:	8f4a0028 	lw	t2,40(k0)
a08008ec:	8f4b002c 	lw	t3,44(k0)
a08008f0:	8f4c0030 	lw	t4,48(k0)
a08008f4:	8f4d0034 	lw	t5,52(k0)
a08008f8:	8f4e0038 	lw	t6,56(k0)
a08008fc:	8f4f003c 	lw	t7,60(k0)
a0800900:	8f500040 	lw	s0,64(k0)
a0800904:	8f510044 	lw	s1,68(k0)
a0800908:	8f520048 	lw	s2,72(k0)
a080090c:	8f53004c 	lw	s3,76(k0)
a0800910:	8f540050 	lw	s4,80(k0)
a0800914:	8f550054 	lw	s5,84(k0)
a0800918:	8f560058 	lw	s6,88(k0)
a080091c:	8f57005c 	lw	s7,92(k0)
a0800920:	8f580060 	lw	t8,96(k0)
a0800924:	8f590064 	lw	t9,100(k0)
a0800928:	8f5c0070 	lw	gp,112(k0)
a080092c:	8f5d0074 	lw	sp,116(k0)
a0800930:	8f5e0078 	lw	s8,120(k0)
a0800934:	8f5f007c 	lw	ra,124(k0)
a0800938:	8f5b0084 	lw	k1,132(k0)
a080093c:	03600011 	mthi	k1
a0800940:	8f5b0088 	lw	k1,136(k0)
a0800944:	03600013 	mtlo	k1
a0800948:	8f5b008c 	lw	k1,140(k0)
a080094c:	409b4000 	mtc0	k1,c0_badvaddr
a0800950:	8f5b0094 	lw	k1,148(k0)
a0800954:	409b7000 	mtc0	k1,c0_epc
a0800958:	00000000 	nop
a080095c:	401a6000 	mfc0	k0,c0_sr
a0800960:	00000000 	nop
a0800964:	375a0001 	ori	k0,k0,0x1
a0800968:	409a6000 	mtc0	k0,c0_sr
a080096c:	42000018 	eret
a0800970:	00000000 	nop

a0800974 <handle_other>:
a0800974:	3c1aa080 	lui	k0,0xa080
a0800978:	8f5a684c 	lw	k0,26700(k0)
a080097c:	235a009c 	addi	k0,k0,156
a0800980:	8f400000 	lw	zero,0(k0)
a0800984:	8f410004 	lw	at,4(k0)
a0800988:	8f420008 	lw	v0,8(k0)
a080098c:	8f43000c 	lw	v1,12(k0)
a0800990:	8f440010 	lw	a0,16(k0)
a0800994:	8f450014 	lw	a1,20(k0)
a0800998:	8f460018 	lw	a2,24(k0)
a080099c:	8f47001c 	lw	a3,28(k0)
a08009a0:	8f480020 	lw	t0,32(k0)
a08009a4:	8f490024 	lw	t1,36(k0)
a08009a8:	8f4a0028 	lw	t2,40(k0)
a08009ac:	8f4b002c 	lw	t3,44(k0)
a08009b0:	8f4c0030 	lw	t4,48(k0)
a08009b4:	8f4d0034 	lw	t5,52(k0)
a08009b8:	8f4e0038 	lw	t6,56(k0)
a08009bc:	8f4f003c 	lw	t7,60(k0)
a08009c0:	8f500040 	lw	s0,64(k0)
a08009c4:	8f510044 	lw	s1,68(k0)
a08009c8:	8f520048 	lw	s2,72(k0)
a08009cc:	8f53004c 	lw	s3,76(k0)
a08009d0:	8f540050 	lw	s4,80(k0)
a08009d4:	8f550054 	lw	s5,84(k0)
a08009d8:	8f560058 	lw	s6,88(k0)
a08009dc:	8f57005c 	lw	s7,92(k0)
a08009e0:	8f580060 	lw	t8,96(k0)
a08009e4:	8f590064 	lw	t9,100(k0)
a08009e8:	8f5c0070 	lw	gp,112(k0)
a08009ec:	8f5d0074 	lw	sp,116(k0)
a08009f0:	8f5e0078 	lw	s8,120(k0)
a08009f4:	8f5f007c 	lw	ra,124(k0)
a08009f8:	8f5b0084 	lw	k1,132(k0)
a08009fc:	03600011 	mthi	k1
a0800a00:	8f5b0088 	lw	k1,136(k0)
a0800a04:	03600013 	mtlo	k1
a0800a08:	8f5b008c 	lw	k1,140(k0)
a0800a0c:	409b4000 	mtc0	k1,c0_badvaddr
a0800a10:	8f5b0094 	lw	k1,148(k0)
a0800a14:	409b7000 	mtc0	k1,c0_epc
a0800a18:	00000000 	nop
a0800a1c:	401a6000 	mfc0	k0,c0_sr
a0800a20:	00000000 	nop
a0800a24:	375a0001 	ori	k0,k0,0x1
a0800a28:	409a6000 	mtc0	k0,c0_sr
a0800a2c:	42000018 	eret
	...

a0800a40 <invoke_syscall>:
a0800a40:	00801021 	move	v0,a0
a0800a44:	00a02021 	move	a0,a1
a0800a48:	00c02821 	move	a1,a2
a0800a4c:	00e03021 	move	a2,a3
a0800a50:	0000000c 	syscall
a0800a54:	03e00008 	jr	ra
a0800a58:	00000000 	nop
a0800a5c:	00000000 	nop

a0800a60 <port_write_ch>:
a0800a60:	27bdffe0 	addiu	sp,sp,-32
a0800a64:	afbf001c 	sw	ra,28(sp)
a0800a68:	afbe0018 	sw	s8,24(sp)
a0800a6c:	03a0f021 	move	s8,sp
a0800a70:	00801021 	move	v0,a0
a0800a74:	a3c20020 	sb	v0,32(s8)
a0800a78:	3c028001 	lui	v0,0x8001
a0800a7c:	34421140 	ori	v0,v0,0x1140
a0800a80:	afc20010 	sw	v0,16(s8)
a0800a84:	83c20020 	lb	v0,32(s8)
a0800a88:	8fc30010 	lw	v1,16(s8)
a0800a8c:	00402021 	move	a0,v0
a0800a90:	0060f809 	jalr	v1
a0800a94:	00000000 	nop
a0800a98:	03c0e821 	move	sp,s8
a0800a9c:	8fbf001c 	lw	ra,28(sp)
a0800aa0:	8fbe0018 	lw	s8,24(sp)
a0800aa4:	27bd0020 	addiu	sp,sp,32
a0800aa8:	03e00008 	jr	ra
a0800aac:	00000000 	nop

a0800ab0 <port_write>:
a0800ab0:	27bdffe0 	addiu	sp,sp,-32
a0800ab4:	afbf001c 	sw	ra,28(sp)
a0800ab8:	afbe0018 	sw	s8,24(sp)
a0800abc:	03a0f021 	move	s8,sp
a0800ac0:	afc40020 	sw	a0,32(s8)
a0800ac4:	3c028001 	lui	v0,0x8001
a0800ac8:	34421100 	ori	v0,v0,0x1100
a0800acc:	afc20010 	sw	v0,16(s8)
a0800ad0:	8fc20010 	lw	v0,16(s8)
a0800ad4:	8fc40020 	lw	a0,32(s8)
a0800ad8:	0040f809 	jalr	v0
a0800adc:	00000000 	nop
a0800ae0:	03c0e821 	move	sp,s8
a0800ae4:	8fbf001c 	lw	ra,28(sp)
a0800ae8:	8fbe0018 	lw	s8,24(sp)
a0800aec:	27bd0020 	addiu	sp,sp,32
a0800af0:	03e00008 	jr	ra
a0800af4:	00000000 	nop
	...

a0800b00 <vt100_move_cursor>:
a0800b00:	27bdffe8 	addiu	sp,sp,-24
a0800b04:	afbf0014 	sw	ra,20(sp)
a0800b08:	afbe0010 	sw	s8,16(sp)
a0800b0c:	03a0f021 	move	s8,sp
a0800b10:	afc40018 	sw	a0,24(s8)
a0800b14:	afc5001c 	sw	a1,28(s8)
a0800b18:	3c02a080 	lui	v0,0xa080
a0800b1c:	244463c0 	addiu	a0,v0,25536
a0800b20:	2405001b 	li	a1,27
a0800b24:	8fc6001c 	lw	a2,28(s8)
a0800b28:	8fc70018 	lw	a3,24(s8)
a0800b2c:	0c2015bd 	jal	a08056f4 <printk>
a0800b30:	00000000 	nop
a0800b34:	03c0e821 	move	sp,s8
a0800b38:	8fbf0014 	lw	ra,20(sp)
a0800b3c:	8fbe0010 	lw	s8,16(sp)
a0800b40:	27bd0018 	addiu	sp,sp,24
a0800b44:	03e00008 	jr	ra
a0800b48:	00000000 	nop

a0800b4c <vt100_clear>:
a0800b4c:	27bdffe8 	addiu	sp,sp,-24
a0800b50:	afbf0014 	sw	ra,20(sp)
a0800b54:	afbe0010 	sw	s8,16(sp)
a0800b58:	03a0f021 	move	s8,sp
a0800b5c:	3c02a080 	lui	v0,0xa080
a0800b60:	244463cc 	addiu	a0,v0,25548
a0800b64:	2405001b 	li	a1,27
a0800b68:	0c2015bd 	jal	a08056f4 <printk>
a0800b6c:	00000000 	nop
a0800b70:	03c0e821 	move	sp,s8
a0800b74:	8fbf0014 	lw	ra,20(sp)
a0800b78:	8fbe0010 	lw	s8,16(sp)
a0800b7c:	27bd0018 	addiu	sp,sp,24
a0800b80:	03e00008 	jr	ra
a0800b84:	00000000 	nop

a0800b88 <vt100_hidden_cursor>:
a0800b88:	27bdffe8 	addiu	sp,sp,-24
a0800b8c:	afbf0014 	sw	ra,20(sp)
a0800b90:	afbe0010 	sw	s8,16(sp)
a0800b94:	03a0f021 	move	s8,sp
a0800b98:	3c02a080 	lui	v0,0xa080
a0800b9c:	244463d4 	addiu	a0,v0,25556
a0800ba0:	2405001b 	li	a1,27
a0800ba4:	0c2015bd 	jal	a08056f4 <printk>
a0800ba8:	00000000 	nop
a0800bac:	03c0e821 	move	sp,s8
a0800bb0:	8fbf0014 	lw	ra,20(sp)
a0800bb4:	8fbe0010 	lw	s8,16(sp)
a0800bb8:	27bd0018 	addiu	sp,sp,24
a0800bbc:	03e00008 	jr	ra
a0800bc0:	00000000 	nop

a0800bc4 <screen_scroll>:
a0800bc4:	27bdfff0 	addiu	sp,sp,-16
a0800bc8:	afbe000c 	sw	s8,12(sp)
a0800bcc:	03a0f021 	move	s8,sp
a0800bd0:	afc40010 	sw	a0,16(s8)
a0800bd4:	afc50014 	sw	a1,20(s8)
a0800bd8:	8fc20010 	lw	v0,16(s8)
a0800bdc:	afc20004 	sw	v0,4(s8)
a0800be0:	08200311 	j	a0800c44 <screen_scroll+0x80>
a0800be4:	00000000 	nop
a0800be8:	afc00000 	sw	zero,0(s8)
a0800bec:	0820030a 	j	a0800c28 <screen_scroll+0x64>
a0800bf0:	00000000 	nop
a0800bf4:	8fc20004 	lw	v0,4(s8)
a0800bf8:	00021900 	sll	v1,v0,0x4
a0800bfc:	00031080 	sll	v0,v1,0x2
a0800c00:	00621821 	addu	v1,v1,v0
a0800c04:	8fc20000 	lw	v0,0(s8)
a0800c08:	00621821 	addu	v1,v1,v0
a0800c0c:	3c02a080 	lui	v0,0xa080
a0800c10:	244271b0 	addiu	v0,v0,29104
a0800c14:	00621021 	addu	v0,v1,v0
a0800c18:	a0400000 	sb	zero,0(v0)
a0800c1c:	8fc20000 	lw	v0,0(s8)
a0800c20:	24420001 	addiu	v0,v0,1
a0800c24:	afc20000 	sw	v0,0(s8)
a0800c28:	8fc20000 	lw	v0,0(s8)
a0800c2c:	28420050 	slti	v0,v0,80
a0800c30:	1440fff0 	bnez	v0,a0800bf4 <screen_scroll+0x30>
a0800c34:	00000000 	nop
a0800c38:	8fc20004 	lw	v0,4(s8)
a0800c3c:	24420001 	addiu	v0,v0,1
a0800c40:	afc20004 	sw	v0,4(s8)
a0800c44:	8fc20004 	lw	v0,4(s8)
a0800c48:	8fc30014 	lw	v1,20(s8)
a0800c4c:	0062102a 	slt	v0,v1,v0
a0800c50:	1040ffe5 	beqz	v0,a0800be8 <screen_scroll+0x24>
a0800c54:	00000000 	nop
a0800c58:	8fc20010 	lw	v0,16(s8)
a0800c5c:	afc20004 	sw	v0,4(s8)
a0800c60:	0820034d 	j	a0800d34 <screen_scroll+0x170>
a0800c64:	00000000 	nop
a0800c68:	afc00000 	sw	zero,0(s8)
a0800c6c:	08200346 	j	a0800d18 <screen_scroll+0x154>
a0800c70:	00000000 	nop
a0800c74:	8fc30004 	lw	v1,4(s8)
a0800c78:	8fc20014 	lw	v0,20(s8)
a0800c7c:	1462000e 	bne	v1,v0,a0800cb8 <screen_scroll+0xf4>
a0800c80:	00000000 	nop
a0800c84:	8fc20004 	lw	v0,4(s8)
a0800c88:	00021900 	sll	v1,v0,0x4
a0800c8c:	00031080 	sll	v0,v1,0x2
a0800c90:	00621821 	addu	v1,v1,v0
a0800c94:	8fc20000 	lw	v0,0(s8)
a0800c98:	00621821 	addu	v1,v1,v0
a0800c9c:	3c02a080 	lui	v0,0xa080
a0800ca0:	24426850 	addiu	v0,v0,26704
a0800ca4:	00621821 	addu	v1,v1,v0
a0800ca8:	24020020 	li	v0,32
a0800cac:	a0620000 	sb	v0,0(v1)
a0800cb0:	08200343 	j	a0800d0c <screen_scroll+0x148>
a0800cb4:	00000000 	nop
a0800cb8:	8fc20004 	lw	v0,4(s8)
a0800cbc:	00021900 	sll	v1,v0,0x4
a0800cc0:	00031080 	sll	v0,v1,0x2
a0800cc4:	00621821 	addu	v1,v1,v0
a0800cc8:	8fc20000 	lw	v0,0(s8)
a0800ccc:	00622021 	addu	a0,v1,v0
a0800cd0:	8fc20004 	lw	v0,4(s8)
a0800cd4:	24420001 	addiu	v0,v0,1
a0800cd8:	00021900 	sll	v1,v0,0x4
a0800cdc:	00031080 	sll	v0,v1,0x2
a0800ce0:	00621821 	addu	v1,v1,v0
a0800ce4:	8fc20000 	lw	v0,0(s8)
a0800ce8:	00621821 	addu	v1,v1,v0
a0800cec:	3c02a080 	lui	v0,0xa080
a0800cf0:	24426850 	addiu	v0,v0,26704
a0800cf4:	00621021 	addu	v0,v1,v0
a0800cf8:	80430000 	lb	v1,0(v0)
a0800cfc:	3c02a080 	lui	v0,0xa080
a0800d00:	24426850 	addiu	v0,v0,26704
a0800d04:	00821021 	addu	v0,a0,v0
a0800d08:	a0430000 	sb	v1,0(v0)
a0800d0c:	8fc20000 	lw	v0,0(s8)
a0800d10:	24420001 	addiu	v0,v0,1
a0800d14:	afc20000 	sw	v0,0(s8)
a0800d18:	8fc20000 	lw	v0,0(s8)
a0800d1c:	28420050 	slti	v0,v0,80
a0800d20:	1440ffd4 	bnez	v0,a0800c74 <screen_scroll+0xb0>
a0800d24:	00000000 	nop
a0800d28:	8fc20004 	lw	v0,4(s8)
a0800d2c:	24420001 	addiu	v0,v0,1
a0800d30:	afc20004 	sw	v0,4(s8)
a0800d34:	8fc20004 	lw	v0,4(s8)
a0800d38:	8fc30014 	lw	v1,20(s8)
a0800d3c:	0062102a 	slt	v0,v1,v0
a0800d40:	1040ffc9 	beqz	v0,a0800c68 <screen_scroll+0xa4>
a0800d44:	00000000 	nop
a0800d48:	03c0e821 	move	sp,s8
a0800d4c:	8fbe000c 	lw	s8,12(sp)
a0800d50:	27bd0010 	addiu	sp,sp,16
a0800d54:	03e00008 	jr	ra
a0800d58:	00000000 	nop

a0800d5c <screen_write_ch>:
a0800d5c:	27bdffe8 	addiu	sp,sp,-24
a0800d60:	afbf0014 	sw	ra,20(sp)
a0800d64:	afbe0010 	sw	s8,16(sp)
a0800d68:	03a0f021 	move	s8,sp
a0800d6c:	00801021 	move	v0,a0
a0800d70:	a3c20018 	sb	v0,24(s8)
a0800d74:	83c30018 	lb	v1,24(s8)
a0800d78:	2402000a 	li	v0,10
a0800d7c:	1462000a 	bne	v1,v0,a0800da8 <screen_write_ch+0x4c>
a0800d80:	00000000 	nop
a0800d84:	3c02a080 	lui	v0,0xa080
a0800d88:	ac406810 	sw	zero,26640(v0)
a0800d8c:	3c02a080 	lui	v0,0xa080
a0800d90:	8c426814 	lw	v0,26644(v0)
a0800d94:	24430001 	addiu	v1,v0,1
a0800d98:	3c02a080 	lui	v0,0xa080
a0800d9c:	ac436814 	sw	v1,26644(v0)
a0800da0:	082003a9 	j	a0800ea4 <screen_write_ch+0x148>
a0800da4:	00000000 	nop
a0800da8:	83c30018 	lb	v1,24(s8)
a0800dac:	24020008 	li	v0,8
a0800db0:	10620005 	beq	v1,v0,a0800dc8 <screen_write_ch+0x6c>
a0800db4:	00000000 	nop
a0800db8:	83c30018 	lb	v1,24(s8)
a0800dbc:	2402007f 	li	v0,127
a0800dc0:	14620019 	bne	v1,v0,a0800e28 <screen_write_ch+0xcc>
a0800dc4:	00000000 	nop
a0800dc8:	3c02a080 	lui	v0,0xa080
a0800dcc:	8c426810 	lw	v0,26640(v0)
a0800dd0:	18400034 	blez	v0,a0800ea4 <screen_write_ch+0x148>
a0800dd4:	00000000 	nop
a0800dd8:	3c02a080 	lui	v0,0xa080
a0800ddc:	8c426810 	lw	v0,26640(v0)
a0800de0:	2443ffff 	addiu	v1,v0,-1
a0800de4:	3c02a080 	lui	v0,0xa080
a0800de8:	ac436810 	sw	v1,26640(v0)
a0800dec:	3c02a080 	lui	v0,0xa080
a0800df0:	8c426814 	lw	v0,26644(v0)
a0800df4:	00021900 	sll	v1,v0,0x4
a0800df8:	00031080 	sll	v0,v1,0x2
a0800dfc:	00621821 	addu	v1,v1,v0
a0800e00:	3c02a080 	lui	v0,0xa080
a0800e04:	8c426810 	lw	v0,26640(v0)
a0800e08:	00621821 	addu	v1,v1,v0
a0800e0c:	3c02a080 	lui	v0,0xa080
a0800e10:	24426850 	addiu	v0,v0,26704
a0800e14:	00621821 	addu	v1,v1,v0
a0800e18:	24020020 	li	v0,32
a0800e1c:	a0620000 	sb	v0,0(v1)
a0800e20:	082003a9 	j	a0800ea4 <screen_write_ch+0x148>
a0800e24:	00000000 	nop
a0800e28:	83c30018 	lb	v1,24(s8)
a0800e2c:	2402000d 	li	v0,13
a0800e30:	1462000a 	bne	v1,v0,a0800e5c <screen_write_ch+0x100>
a0800e34:	00000000 	nop
a0800e38:	3c02a080 	lui	v0,0xa080
a0800e3c:	ac406810 	sw	zero,26640(v0)
a0800e40:	3c02a080 	lui	v0,0xa080
a0800e44:	8c426814 	lw	v0,26644(v0)
a0800e48:	24430001 	addiu	v1,v0,1
a0800e4c:	3c02a080 	lui	v0,0xa080
a0800e50:	ac436814 	sw	v1,26644(v0)
a0800e54:	082003a9 	j	a0800ea4 <screen_write_ch+0x148>
a0800e58:	00000000 	nop
a0800e5c:	3c02a080 	lui	v0,0xa080
a0800e60:	8c426814 	lw	v0,26644(v0)
a0800e64:	00021900 	sll	v1,v0,0x4
a0800e68:	00031080 	sll	v0,v1,0x2
a0800e6c:	00621821 	addu	v1,v1,v0
a0800e70:	3c02a080 	lui	v0,0xa080
a0800e74:	8c426810 	lw	v0,26640(v0)
a0800e78:	00621821 	addu	v1,v1,v0
a0800e7c:	3c02a080 	lui	v0,0xa080
a0800e80:	24426850 	addiu	v0,v0,26704
a0800e84:	00621821 	addu	v1,v1,v0
a0800e88:	93c20018 	lbu	v0,24(s8)
a0800e8c:	a0620000 	sb	v0,0(v1)
a0800e90:	3c02a080 	lui	v0,0xa080
a0800e94:	8c426810 	lw	v0,26640(v0)
a0800e98:	24430001 	addiu	v1,v0,1
a0800e9c:	3c02a080 	lui	v0,0xa080
a0800ea0:	ac436810 	sw	v1,26640(v0)
a0800ea4:	3c02a080 	lui	v0,0xa080
a0800ea8:	8c426810 	lw	v0,26640(v0)
a0800eac:	04410003 	bgez	v0,a0800ebc <screen_write_ch+0x160>
a0800eb0:	00000000 	nop
a0800eb4:	3c02a080 	lui	v0,0xa080
a0800eb8:	ac406810 	sw	zero,26640(v0)
a0800ebc:	3c02a080 	lui	v0,0xa080
a0800ec0:	8c426810 	lw	v0,26640(v0)
a0800ec4:	28420050 	slti	v0,v0,80
a0800ec8:	14400008 	bnez	v0,a0800eec <screen_write_ch+0x190>
a0800ecc:	00000000 	nop
a0800ed0:	3c02a080 	lui	v0,0xa080
a0800ed4:	8c426814 	lw	v0,26644(v0)
a0800ed8:	24430001 	addiu	v1,v0,1
a0800edc:	3c02a080 	lui	v0,0xa080
a0800ee0:	ac436814 	sw	v1,26644(v0)
a0800ee4:	3c02a080 	lui	v0,0xa080
a0800ee8:	ac406810 	sw	zero,26640(v0)
a0800eec:	3c02a080 	lui	v0,0xa080
a0800ef0:	8c426814 	lw	v0,26644(v0)
a0800ef4:	04410003 	bgez	v0,a0800f04 <screen_write_ch+0x1a8>
a0800ef8:	00000000 	nop
a0800efc:	3c02a080 	lui	v0,0xa080
a0800f00:	ac406814 	sw	zero,26644(v0)
a0800f04:	3c02a080 	lui	v0,0xa080
a0800f08:	8c426814 	lw	v0,26644(v0)
a0800f0c:	2842001e 	slti	v0,v0,30
a0800f10:	1440000a 	bnez	v0,a0800f3c <screen_write_ch+0x1e0>
a0800f14:	00000000 	nop
a0800f18:	24040010 	li	a0,16
a0800f1c:	2405001d 	li	a1,29
a0800f20:	0c2002f1 	jal	a0800bc4 <screen_scroll>
a0800f24:	00000000 	nop
a0800f28:	3c02a080 	lui	v0,0xa080
a0800f2c:	ac406810 	sw	zero,26640(v0)
a0800f30:	3c03a080 	lui	v1,0xa080
a0800f34:	2402001d 	li	v0,29
a0800f38:	ac626814 	sw	v0,26644(v1)
a0800f3c:	03c0e821 	move	sp,s8
a0800f40:	8fbf0014 	lw	ra,20(sp)
a0800f44:	8fbe0010 	lw	s8,16(sp)
a0800f48:	27bd0018 	addiu	sp,sp,24
a0800f4c:	03e00008 	jr	ra
a0800f50:	00000000 	nop

a0800f54 <init_screen>:
a0800f54:	27bdffe8 	addiu	sp,sp,-24
a0800f58:	afbf0014 	sw	ra,20(sp)
a0800f5c:	afbe0010 	sw	s8,16(sp)
a0800f60:	03a0f021 	move	s8,sp
a0800f64:	0c2002e2 	jal	a0800b88 <vt100_hidden_cursor>
a0800f68:	00000000 	nop
a0800f6c:	0c2002d3 	jal	a0800b4c <vt100_clear>
a0800f70:	00000000 	nop
a0800f74:	00002021 	move	a0,zero
a0800f78:	2405001d 	li	a1,29
a0800f7c:	0c2003e7 	jal	a0800f9c <screen_clear>
a0800f80:	00000000 	nop
a0800f84:	03c0e821 	move	sp,s8
a0800f88:	8fbf0014 	lw	ra,20(sp)
a0800f8c:	8fbe0010 	lw	s8,16(sp)
a0800f90:	27bd0018 	addiu	sp,sp,24
a0800f94:	03e00008 	jr	ra
a0800f98:	00000000 	nop

a0800f9c <screen_clear>:
a0800f9c:	27bdffe0 	addiu	sp,sp,-32
a0800fa0:	afbf001c 	sw	ra,28(sp)
a0800fa4:	afbe0018 	sw	s8,24(sp)
a0800fa8:	03a0f021 	move	s8,sp
a0800fac:	afc40020 	sw	a0,32(s8)
a0800fb0:	afc50024 	sw	a1,36(s8)
a0800fb4:	afc00014 	sw	zero,20(s8)
a0800fb8:	08200412 	j	a0801048 <screen_clear+0xac>
a0800fbc:	00000000 	nop
a0800fc0:	afc00010 	sw	zero,16(s8)
a0800fc4:	0820040b 	j	a080102c <screen_clear+0x90>
a0800fc8:	00000000 	nop
a0800fcc:	8fc20014 	lw	v0,20(s8)
a0800fd0:	00021900 	sll	v1,v0,0x4
a0800fd4:	00031080 	sll	v0,v1,0x2
a0800fd8:	00621821 	addu	v1,v1,v0
a0800fdc:	8fc20010 	lw	v0,16(s8)
a0800fe0:	00621821 	addu	v1,v1,v0
a0800fe4:	3c02a080 	lui	v0,0xa080
a0800fe8:	24426850 	addiu	v0,v0,26704
a0800fec:	00621821 	addu	v1,v1,v0
a0800ff0:	24020020 	li	v0,32
a0800ff4:	a0620000 	sb	v0,0(v1)
a0800ff8:	8fc20014 	lw	v0,20(s8)
a0800ffc:	00021900 	sll	v1,v0,0x4
a0801000:	00031080 	sll	v0,v1,0x2
a0801004:	00621821 	addu	v1,v1,v0
a0801008:	8fc20010 	lw	v0,16(s8)
a080100c:	00621821 	addu	v1,v1,v0
a0801010:	3c02a080 	lui	v0,0xa080
a0801014:	244271b0 	addiu	v0,v0,29104
a0801018:	00621021 	addu	v0,v1,v0
a080101c:	a0400000 	sb	zero,0(v0)
a0801020:	8fc20010 	lw	v0,16(s8)
a0801024:	24420001 	addiu	v0,v0,1
a0801028:	afc20010 	sw	v0,16(s8)
a080102c:	8fc20010 	lw	v0,16(s8)
a0801030:	28420050 	slti	v0,v0,80
a0801034:	1440ffe5 	bnez	v0,a0800fcc <screen_clear+0x30>
a0801038:	00000000 	nop
a080103c:	8fc20014 	lw	v0,20(s8)
a0801040:	24420001 	addiu	v0,v0,1
a0801044:	afc20014 	sw	v0,20(s8)
a0801048:	8fc20014 	lw	v0,20(s8)
a080104c:	2842001e 	slti	v0,v0,30
a0801050:	1440ffdb 	bnez	v0,a0800fc0 <screen_clear+0x24>
a0801054:	00000000 	nop
a0801058:	3c02a080 	lui	v0,0xa080
a080105c:	ac406810 	sw	zero,26640(v0)
a0801060:	3c02a080 	lui	v0,0xa080
a0801064:	ac406814 	sw	zero,26644(v0)
a0801068:	0c200454 	jal	a0801150 <screen_reflush>
a080106c:	00000000 	nop
a0801070:	03c0e821 	move	sp,s8
a0801074:	8fbf001c 	lw	ra,28(sp)
a0801078:	8fbe0018 	lw	s8,24(sp)
a080107c:	27bd0020 	addiu	sp,sp,32
a0801080:	03e00008 	jr	ra
a0801084:	00000000 	nop

a0801088 <screen_move_cursor>:
a0801088:	27bdfff8 	addiu	sp,sp,-8
a080108c:	afbe0004 	sw	s8,4(sp)
a0801090:	03a0f021 	move	s8,sp
a0801094:	afc40008 	sw	a0,8(s8)
a0801098:	afc5000c 	sw	a1,12(s8)
a080109c:	3c03a080 	lui	v1,0xa080
a08010a0:	8fc20008 	lw	v0,8(s8)
a08010a4:	ac626810 	sw	v0,26640(v1)
a08010a8:	3c03a080 	lui	v1,0xa080
a08010ac:	8fc2000c 	lw	v0,12(s8)
a08010b0:	ac626814 	sw	v0,26644(v1)
a08010b4:	03c0e821 	move	sp,s8
a08010b8:	8fbe0004 	lw	s8,4(sp)
a08010bc:	27bd0008 	addiu	sp,sp,8
a08010c0:	03e00008 	jr	ra
a08010c4:	00000000 	nop

a08010c8 <screen_write>:
a08010c8:	27bdffe0 	addiu	sp,sp,-32
a08010cc:	afbf001c 	sw	ra,28(sp)
a08010d0:	afbe0018 	sw	s8,24(sp)
a08010d4:	03a0f021 	move	s8,sp
a08010d8:	afc40020 	sw	a0,32(s8)
a08010dc:	afc00014 	sw	zero,20(s8)
a08010e0:	8fc40020 	lw	a0,32(s8)
a08010e4:	0c20127c 	jal	a08049f0 <strlen>
a08010e8:	00000000 	nop
a08010ec:	afc20010 	sw	v0,16(s8)
a08010f0:	afc00014 	sw	zero,20(s8)
a08010f4:	08200449 	j	a0801124 <screen_write+0x5c>
a08010f8:	00000000 	nop
a08010fc:	8fc30014 	lw	v1,20(s8)
a0801100:	8fc20020 	lw	v0,32(s8)
a0801104:	00431021 	addu	v0,v0,v1
a0801108:	80420000 	lb	v0,0(v0)
a080110c:	00402021 	move	a0,v0
a0801110:	0c200357 	jal	a0800d5c <screen_write_ch>
a0801114:	00000000 	nop
a0801118:	8fc20014 	lw	v0,20(s8)
a080111c:	24420001 	addiu	v0,v0,1
a0801120:	afc20014 	sw	v0,20(s8)
a0801124:	8fc20014 	lw	v0,20(s8)
a0801128:	8fc30010 	lw	v1,16(s8)
a080112c:	0043102a 	slt	v0,v0,v1
a0801130:	1440fff2 	bnez	v0,a08010fc <screen_write+0x34>
a0801134:	00000000 	nop
a0801138:	03c0e821 	move	sp,s8
a080113c:	8fbf001c 	lw	ra,28(sp)
a0801140:	8fbe0018 	lw	s8,24(sp)
a0801144:	27bd0020 	addiu	sp,sp,32
a0801148:	03e00008 	jr	ra
a080114c:	00000000 	nop

a0801150 <screen_reflush>:
a0801150:	27bdffe0 	addiu	sp,sp,-32
a0801154:	afbf001c 	sw	ra,28(sp)
a0801158:	afbe0018 	sw	s8,24(sp)
a080115c:	03a0f021 	move	s8,sp
a0801160:	afc00014 	sw	zero,20(s8)
a0801164:	082004a7 	j	a080129c <screen_reflush+0x14c>
a0801168:	00000000 	nop
a080116c:	afc00010 	sw	zero,16(s8)
a0801170:	082004a0 	j	a0801280 <screen_reflush+0x130>
a0801174:	00000000 	nop
a0801178:	8fc20014 	lw	v0,20(s8)
a080117c:	00021900 	sll	v1,v0,0x4
a0801180:	00031080 	sll	v0,v1,0x2
a0801184:	00621821 	addu	v1,v1,v0
a0801188:	8fc20010 	lw	v0,16(s8)
a080118c:	00621821 	addu	v1,v1,v0
a0801190:	3c02a080 	lui	v0,0xa080
a0801194:	24426850 	addiu	v0,v0,26704
a0801198:	00621021 	addu	v0,v1,v0
a080119c:	80440000 	lb	a0,0(v0)
a08011a0:	8fc20014 	lw	v0,20(s8)
a08011a4:	00021900 	sll	v1,v0,0x4
a08011a8:	00031080 	sll	v0,v1,0x2
a08011ac:	00621821 	addu	v1,v1,v0
a08011b0:	8fc20010 	lw	v0,16(s8)
a08011b4:	00621821 	addu	v1,v1,v0
a08011b8:	3c02a080 	lui	v0,0xa080
a08011bc:	244271b0 	addiu	v0,v0,29104
a08011c0:	00621021 	addu	v0,v1,v0
a08011c4:	80420000 	lb	v0,0(v0)
a08011c8:	1082002a 	beq	a0,v0,a0801274 <screen_reflush+0x124>
a08011cc:	00000000 	nop
a08011d0:	8fc20010 	lw	v0,16(s8)
a08011d4:	24430001 	addiu	v1,v0,1
a08011d8:	8fc20014 	lw	v0,20(s8)
a08011dc:	24420001 	addiu	v0,v0,1
a08011e0:	00602021 	move	a0,v1
a08011e4:	00402821 	move	a1,v0
a08011e8:	0c2002c0 	jal	a0800b00 <vt100_move_cursor>
a08011ec:	00000000 	nop
a08011f0:	8fc20014 	lw	v0,20(s8)
a08011f4:	00021900 	sll	v1,v0,0x4
a08011f8:	00031080 	sll	v0,v1,0x2
a08011fc:	00621821 	addu	v1,v1,v0
a0801200:	8fc20010 	lw	v0,16(s8)
a0801204:	00621821 	addu	v1,v1,v0
a0801208:	3c02a080 	lui	v0,0xa080
a080120c:	24426850 	addiu	v0,v0,26704
a0801210:	00621021 	addu	v0,v1,v0
a0801214:	80420000 	lb	v0,0(v0)
a0801218:	00402021 	move	a0,v0
a080121c:	0c200298 	jal	a0800a60 <port_write_ch>
a0801220:	00000000 	nop
a0801224:	8fc20014 	lw	v0,20(s8)
a0801228:	00021900 	sll	v1,v0,0x4
a080122c:	00031080 	sll	v0,v1,0x2
a0801230:	00621821 	addu	v1,v1,v0
a0801234:	8fc20010 	lw	v0,16(s8)
a0801238:	00622021 	addu	a0,v1,v0
a080123c:	8fc20014 	lw	v0,20(s8)
a0801240:	00021900 	sll	v1,v0,0x4
a0801244:	00031080 	sll	v0,v1,0x2
a0801248:	00621821 	addu	v1,v1,v0
a080124c:	8fc20010 	lw	v0,16(s8)
a0801250:	00621821 	addu	v1,v1,v0
a0801254:	3c02a080 	lui	v0,0xa080
a0801258:	24426850 	addiu	v0,v0,26704
a080125c:	00621021 	addu	v0,v1,v0
a0801260:	80430000 	lb	v1,0(v0)
a0801264:	3c02a080 	lui	v0,0xa080
a0801268:	244271b0 	addiu	v0,v0,29104
a080126c:	00821021 	addu	v0,a0,v0
a0801270:	a0430000 	sb	v1,0(v0)
a0801274:	8fc20010 	lw	v0,16(s8)
a0801278:	24420001 	addiu	v0,v0,1
a080127c:	afc20010 	sw	v0,16(s8)
a0801280:	8fc20010 	lw	v0,16(s8)
a0801284:	28420050 	slti	v0,v0,80
a0801288:	1440ffbb 	bnez	v0,a0801178 <screen_reflush+0x28>
a080128c:	00000000 	nop
a0801290:	8fc20014 	lw	v0,20(s8)
a0801294:	24420001 	addiu	v0,v0,1
a0801298:	afc20014 	sw	v0,20(s8)
a080129c:	8fc20014 	lw	v0,20(s8)
a08012a0:	2842001e 	slti	v0,v0,30
a08012a4:	1440ffb1 	bnez	v0,a080116c <screen_reflush+0x1c>
a08012a8:	00000000 	nop
a08012ac:	3c02a080 	lui	v0,0xa080
a08012b0:	8c436810 	lw	v1,26640(v0)
a08012b4:	3c02a080 	lui	v0,0xa080
a08012b8:	8c426814 	lw	v0,26644(v0)
a08012bc:	00602021 	move	a0,v1
a08012c0:	00402821 	move	a1,v0
a08012c4:	0c2002c0 	jal	a0800b00 <vt100_move_cursor>
a08012c8:	00000000 	nop
a08012cc:	03c0e821 	move	sp,s8
a08012d0:	8fbf001c 	lw	ra,28(sp)
a08012d4:	8fbe0018 	lw	s8,24(sp)
a08012d8:	27bd0020 	addiu	sp,sp,32
a08012dc:	03e00008 	jr	ra
a08012e0:	00000000 	nop
	...

a08012f0 <init_page_table>:
a08012f0:	27bdffe8 	addiu	sp,sp,-24
a08012f4:	afbf0014 	sw	ra,20(sp)
a08012f8:	afbe0010 	sw	s8,16(sp)
a08012fc:	03a0f021 	move	s8,sp
a0801300:	3c040100 	lui	a0,0x100
a0801304:	3c050200 	lui	a1,0x200
a0801308:	0c200a46 	jal	a0802918 <free_pgframe>
a080130c:	00000000 	nop
a0801310:	03c0e821 	move	sp,s8
a0801314:	8fbf0014 	lw	ra,20(sp)
a0801318:	8fbe0010 	lw	s8,16(sp)
a080131c:	27bd0018 	addiu	sp,sp,24
a0801320:	03e00008 	jr	ra
a0801324:	00000000 	nop

a0801328 <init_TLB>:
a0801328:	27bdffd0 	addiu	sp,sp,-48
a080132c:	afbf002c 	sw	ra,44(sp)
a0801330:	afbe0028 	sw	s8,40(sp)
a0801334:	03a0f021 	move	s8,sp
a0801338:	3c020001 	lui	v0,0x1
a080133c:	afc20020 	sw	v0,32(s8)
a0801340:	afc0001c 	sw	zero,28(s8)
a0801344:	afc00018 	sw	zero,24(s8)
a0801348:	afc00014 	sw	zero,20(s8)
a080134c:	24020003 	li	v0,3
a0801350:	afc20010 	sw	v0,16(s8)
a0801354:	082004fc 	j	a08013f0 <init_TLB+0xc8>
a0801358:	afc00024 	sw	zero,36(s8)
a080135c:	8fc20020 	lw	v0,32(s8)
a0801360:	00021b40 	sll	v1,v0,0xd
a0801364:	8fc2001c 	lw	v0,28(s8)
a0801368:	304200ff 	andi	v0,v0,0xff
a080136c:	00621025 	or	v0,v1,v0
a0801370:	0c2000db 	jal	a080036c <set_cp0_entryhi>
a0801374:	00402021 	move	a0,v0
a0801378:	8fc20010 	lw	v0,16(s8)
a080137c:	00021180 	sll	v0,v0,0x6
a0801380:	34420017 	ori	v0,v0,0x17
a0801384:	0c2000e3 	jal	a080038c <set_cp0_entrylo0>
a0801388:	00402021 	move	a0,v0
a080138c:	8fc20010 	lw	v0,16(s8)
a0801390:	24420001 	addiu	v0,v0,1
a0801394:	afc20010 	sw	v0,16(s8)
a0801398:	8fc20010 	lw	v0,16(s8)
a080139c:	00021180 	sll	v0,v0,0x6
a08013a0:	34420017 	ori	v0,v0,0x17
a08013a4:	0c2000eb 	jal	a08003ac <set_cp0_entrylo1>
a08013a8:	00402021 	move	a0,v0
a08013ac:	0c2000f7 	jal	a08003dc <set_cp0_pagemask>
a08013b0:	8fc40018 	lw	a0,24(s8)
a08013b4:	0c2000f3 	jal	a08003cc <set_cp0_index>
a08013b8:	8fc40014 	lw	a0,20(s8)
a08013bc:	42000002 	tlbwi
a08013c0:	8fc20024 	lw	v0,36(s8)
a08013c4:	24420001 	addiu	v0,v0,1
a08013c8:	afc20024 	sw	v0,36(s8)
a08013cc:	8fc20020 	lw	v0,32(s8)
a08013d0:	24420001 	addiu	v0,v0,1
a08013d4:	afc20020 	sw	v0,32(s8)
a08013d8:	8fc20014 	lw	v0,20(s8)
a08013dc:	24420001 	addiu	v0,v0,1
a08013e0:	afc20014 	sw	v0,20(s8)
a08013e4:	8fc20010 	lw	v0,16(s8)
a08013e8:	24420001 	addiu	v0,v0,1
a08013ec:	afc20010 	sw	v0,16(s8)
a08013f0:	8fc20024 	lw	v0,36(s8)
a08013f4:	28420020 	slti	v0,v0,32
a08013f8:	1440ffd8 	bnez	v0,a080135c <init_TLB+0x34>
a08013fc:	00000000 	nop
a0801400:	03c0e821 	move	sp,s8
a0801404:	8fbf002c 	lw	ra,44(sp)
a0801408:	8fbe0028 	lw	s8,40(sp)
a080140c:	03e00008 	jr	ra
a0801410:	27bd0030 	addiu	sp,sp,48

a0801414 <init_memory>:
a0801414:	27bdffe8 	addiu	sp,sp,-24
a0801418:	afbf0014 	sw	ra,20(sp)
a080141c:	afbe0010 	sw	s8,16(sp)
a0801420:	03a0f021 	move	s8,sp
a0801424:	3c02a080 	lui	v0,0xa080
a0801428:	2444682c 	addiu	a0,v0,26668
a080142c:	0c200f70 	jal	a0803dc0 <queue_init>
a0801430:	00000000 	nop
a0801434:	3c02a080 	lui	v0,0xa080
a0801438:	2444683c 	addiu	a0,v0,26684
a080143c:	0c200f70 	jal	a0803dc0 <queue_init>
a0801440:	00000000 	nop
a0801444:	3c040100 	lui	a0,0x100
a0801448:	3c050200 	lui	a1,0x200
a080144c:	0c200a46 	jal	a0802918 <free_pgframe>
a0801450:	00000000 	nop
a0801454:	03c0e821 	move	sp,s8
a0801458:	8fbf0014 	lw	ra,20(sp)
a080145c:	8fbe0010 	lw	s8,16(sp)
a0801460:	27bd0018 	addiu	sp,sp,24
a0801464:	03e00008 	jr	ra
a0801468:	00000000 	nop

a080146c <init_pcb>:
a080146c:	27bdffd0 	addiu	sp,sp,-48
a0801470:	afbf002c 	sw	ra,44(sp)
a0801474:	afbe0028 	sw	s8,40(sp)
a0801478:	afb10024 	sw	s1,36(sp)
a080147c:	afb00020 	sw	s0,32(sp)
a0801480:	03a0f021 	move	s8,sp
a0801484:	3c02a080 	lui	v0,0xa080
a0801488:	24446820 	addiu	a0,v0,26656
a080148c:	0c200f70 	jal	a0803dc0 <queue_init>
a0801490:	00000000 	nop
a0801494:	3c02a080 	lui	v0,0xa080
a0801498:	24446834 	addiu	a0,v0,26676
a080149c:	0c200f70 	jal	a0803dc0 <queue_init>
a08014a0:	00000000 	nop
a08014a4:	3c02a080 	lui	v0,0xa080
a08014a8:	24446844 	addiu	a0,v0,26692
a08014ac:	0c200f70 	jal	a0803dc0 <queue_init>
a08014b0:	00000000 	nop
a08014b4:	3c02a083 	lui	v0,0xa083
a08014b8:	24427d58 	addiu	v0,v0,32088
a08014bc:	ac400148 	sw	zero,328(v0)
a08014c0:	3c02a083 	lui	v0,0xa083
a08014c4:	24437d58 	addiu	v1,v0,32088
a08014c8:	24020001 	li	v0,1
a08014cc:	ac620150 	sw	v0,336(v1)
a08014d0:	3c02a100 	lui	v0,0xa100
a08014d4:	afc20010 	sw	v0,16(s8)
a08014d8:	3c03a080 	lui	v1,0xa080
a08014dc:	24020001 	li	v0,1
a08014e0:	ac62681c 	sw	v0,26652(v1)
a08014e4:	3c02a083 	lui	v0,0xa083
a08014e8:	24437d58 	addiu	v1,v0,32088
a08014ec:	2402ffff 	li	v0,-1
a08014f0:	ac6201ac 	sw	v0,428(v1)
a08014f4:	3c02a083 	lui	v0,0xa083
a08014f8:	24437d58 	addiu	v1,v0,32088
a08014fc:	3c020002 	lui	v0,0x2
a0801500:	00431821 	addu	v1,v0,v1
a0801504:	24020001 	li	v0,1
a0801508:	ac620304 	sw	v0,772(v1)
a080150c:	afc00014 	sw	zero,20(s8)
a0801510:	0820056a 	j	a08015a8 <init_pcb+0x13c>
a0801514:	00000000 	nop
a0801518:	3c02a080 	lui	v0,0xa080
a080151c:	8c44681c 	lw	a0,26652(v0)
a0801520:	8fc50014 	lw	a1,20(s8)
a0801524:	3c06a083 	lui	a2,0xa083
a0801528:	00801021 	move	v0,a0
a080152c:	000210c0 	sll	v0,v0,0x3
a0801530:	00021a00 	sll	v1,v0,0x8
a0801534:	00431021 	addu	v0,v0,v1
a0801538:	00441023 	subu	v0,v0,a0
a080153c:	00021100 	sll	v0,v0,0x4
a0801540:	00441023 	subu	v0,v0,a0
a0801544:	00451021 	addu	v0,v0,a1
a0801548:	00021880 	sll	v1,v0,0x2
a080154c:	24c27d58 	addiu	v0,a2,32088
a0801550:	00621021 	addu	v0,v1,v0
a0801554:	ac400000 	sw	zero,0(v0)
a0801558:	3c02a080 	lui	v0,0xa080
a080155c:	8c44681c 	lw	a0,26652(v0)
a0801560:	8fc50014 	lw	a1,20(s8)
a0801564:	3c06a083 	lui	a2,0xa083
a0801568:	00801021 	move	v0,a0
a080156c:	000210c0 	sll	v0,v0,0x3
a0801570:	00021a00 	sll	v1,v0,0x8
a0801574:	00431021 	addu	v0,v0,v1
a0801578:	00441023 	subu	v0,v0,a0
a080157c:	00021100 	sll	v0,v0,0x4
a0801580:	00441023 	subu	v0,v0,a0
a0801584:	00451021 	addu	v0,v0,a1
a0801588:	24420026 	addiu	v0,v0,38
a080158c:	24c37d58 	addiu	v1,a2,32088
a0801590:	00021080 	sll	v0,v0,0x2
a0801594:	00621021 	addu	v0,v1,v0
a0801598:	ac400004 	sw	zero,4(v0)
a080159c:	8fc20014 	lw	v0,20(s8)
a08015a0:	24420001 	addiu	v0,v0,1
a08015a4:	afc20014 	sw	v0,20(s8)
a08015a8:	8fc20014 	lw	v0,20(s8)
a08015ac:	28420020 	slti	v0,v0,32
a08015b0:	1440ffd9 	bnez	v0,a0801518 <init_pcb+0xac>
a08015b4:	00000000 	nop
a08015b8:	3c02a080 	lui	v0,0xa080
a08015bc:	8c44681c 	lw	a0,26652(v0)
a08015c0:	3c05a083 	lui	a1,0xa083
a08015c4:	00801021 	move	v0,a0
a08015c8:	000210c0 	sll	v0,v0,0x3
a08015cc:	00021a00 	sll	v1,v0,0x8
a08015d0:	00431021 	addu	v0,v0,v1
a08015d4:	00441023 	subu	v0,v0,a0
a08015d8:	00021100 	sll	v0,v0,0x4
a08015dc:	00441023 	subu	v0,v0,a0
a08015e0:	00021880 	sll	v1,v0,0x2
a08015e4:	24a27d58 	addiu	v0,a1,32088
a08015e8:	00621821 	addu	v1,v1,v0
a08015ec:	24020002 	li	v0,2
a08015f0:	ac620150 	sw	v0,336(v1)
a08015f4:	3c02a080 	lui	v0,0xa080
a08015f8:	8c51681c 	lw	s1,26652(v0)
a08015fc:	3c02a080 	lui	v0,0xa080
a0801600:	8c50681c 	lw	s0,26652(v0)
a0801604:	0c200c93 	jal	a080324c <get_stack>
a0801608:	00000000 	nop
a080160c:	00402821 	move	a1,v0
a0801610:	3c04a083 	lui	a0,0xa083
a0801614:	02001021 	move	v0,s0
a0801618:	000210c0 	sll	v0,v0,0x3
a080161c:	00021a00 	sll	v1,v0,0x8
a0801620:	00431021 	addu	v0,v0,v1
a0801624:	00501023 	subu	v0,v0,s0
a0801628:	00021100 	sll	v0,v0,0x4
a080162c:	00501023 	subu	v0,v0,s0
a0801630:	00021880 	sll	v1,v0,0x2
a0801634:	24827d58 	addiu	v0,a0,32088
a0801638:	00621021 	addu	v0,v1,v0
a080163c:	ac450074 	sw	a1,116(v0)
a0801640:	3c04a083 	lui	a0,0xa083
a0801644:	02001021 	move	v0,s0
a0801648:	000210c0 	sll	v0,v0,0x3
a080164c:	00021a00 	sll	v1,v0,0x8
a0801650:	00431021 	addu	v0,v0,v1
a0801654:	00501023 	subu	v0,v0,s0
a0801658:	00021100 	sll	v0,v0,0x4
a080165c:	00501023 	subu	v0,v0,s0
a0801660:	00021880 	sll	v1,v0,0x2
a0801664:	24827d58 	addiu	v0,a0,32088
a0801668:	00621021 	addu	v0,v1,v0
a080166c:	8c450074 	lw	a1,116(v0)
a0801670:	3c04a083 	lui	a0,0xa083
a0801674:	02201021 	move	v0,s1
a0801678:	000210c0 	sll	v0,v0,0x3
a080167c:	00021a00 	sll	v1,v0,0x8
a0801680:	00431021 	addu	v0,v0,v1
a0801684:	00511023 	subu	v0,v0,s1
a0801688:	00021100 	sll	v0,v0,0x4
a080168c:	00511023 	subu	v0,v0,s1
a0801690:	00021880 	sll	v1,v0,0x2
a0801694:	24827d58 	addiu	v0,a0,32088
a0801698:	00621021 	addu	v0,v1,v0
a080169c:	ac450138 	sw	a1,312(v0)
a08016a0:	3c02a080 	lui	v0,0xa080
a08016a4:	8c44681c 	lw	a0,26652(v0)
a08016a8:	3c02a080 	lui	v0,0xa080
a08016ac:	244607c8 	addiu	a2,v0,1992
a08016b0:	3c05a083 	lui	a1,0xa083
a08016b4:	00801021 	move	v0,a0
a08016b8:	000210c0 	sll	v0,v0,0x3
a08016bc:	00021a00 	sll	v1,v0,0x8
a08016c0:	00431021 	addu	v0,v0,v1
a08016c4:	00441023 	subu	v0,v0,a0
a08016c8:	00021100 	sll	v0,v0,0x4
a08016cc:	00441023 	subu	v0,v0,a0
a08016d0:	00021880 	sll	v1,v0,0x2
a08016d4:	24a27d58 	addiu	v0,a1,32088
a08016d8:	00621021 	addu	v0,v1,v0
a08016dc:	ac46007c 	sw	a2,124(v0)
a08016e0:	3c02a080 	lui	v0,0xa080
a08016e4:	8c44681c 	lw	a0,26652(v0)
a08016e8:	3c02a080 	lui	v0,0xa080
a08016ec:	24465c50 	addiu	a2,v0,23632
a08016f0:	3c02a083 	lui	v0,0xa083
a08016f4:	24457d58 	addiu	a1,v0,32088
a08016f8:	00801021 	move	v0,a0
a08016fc:	000210c0 	sll	v0,v0,0x3
a0801700:	00021a00 	sll	v1,v0,0x8
a0801704:	00431021 	addu	v0,v0,v1
a0801708:	00441023 	subu	v0,v0,a0
a080170c:	00021100 	sll	v0,v0,0x4
a0801710:	00441023 	subu	v0,v0,a0
a0801714:	00021080 	sll	v0,v0,0x2
a0801718:	00a21021 	addu	v0,a1,v0
a080171c:	ac460094 	sw	a2,148(v0)
a0801720:	3c02a080 	lui	v0,0xa080
a0801724:	8c44681c 	lw	a0,26652(v0)
a0801728:	3c05a083 	lui	a1,0xa083
a080172c:	00801021 	move	v0,a0
a0801730:	000210c0 	sll	v0,v0,0x3
a0801734:	00021a00 	sll	v1,v0,0x8
a0801738:	00431021 	addu	v0,v0,v1
a080173c:	00441023 	subu	v0,v0,a0
a0801740:	00021100 	sll	v0,v0,0x4
a0801744:	00441023 	subu	v0,v0,a0
a0801748:	00021880 	sll	v1,v0,0x2
a080174c:	24a27d58 	addiu	v0,a1,32088
a0801750:	00621821 	addu	v1,v1,v0
a0801754:	3c021000 	lui	v0,0x1000
a0801758:	34428003 	ori	v0,v0,0x8003
a080175c:	ac620080 	sw	v0,128(v1)
a0801760:	3c02a080 	lui	v0,0xa080
a0801764:	8c51681c 	lw	s1,26652(v0)
a0801768:	3c02a080 	lui	v0,0xa080
a080176c:	8c50681c 	lw	s0,26652(v0)
a0801770:	0c200c93 	jal	a080324c <get_stack>
a0801774:	00000000 	nop
a0801778:	00402821 	move	a1,v0
a080177c:	3c02a083 	lui	v0,0xa083
a0801780:	24447d58 	addiu	a0,v0,32088
a0801784:	02001021 	move	v0,s0
a0801788:	000210c0 	sll	v0,v0,0x3
a080178c:	00021a00 	sll	v1,v0,0x8
a0801790:	00431021 	addu	v0,v0,v1
a0801794:	00501023 	subu	v0,v0,s0
a0801798:	00021100 	sll	v0,v0,0x4
a080179c:	00501023 	subu	v0,v0,s0
a08017a0:	00021080 	sll	v0,v0,0x2
a08017a4:	00821021 	addu	v0,a0,v0
a08017a8:	ac450110 	sw	a1,272(v0)
a08017ac:	3c02a083 	lui	v0,0xa083
a08017b0:	24447d58 	addiu	a0,v0,32088
a08017b4:	02001021 	move	v0,s0
a08017b8:	000210c0 	sll	v0,v0,0x3
a08017bc:	00021a00 	sll	v1,v0,0x8
a08017c0:	00431021 	addu	v0,v0,v1
a08017c4:	00501023 	subu	v0,v0,s0
a08017c8:	00021100 	sll	v0,v0,0x4
a08017cc:	00501023 	subu	v0,v0,s0
a08017d0:	00021080 	sll	v0,v0,0x2
a08017d4:	00821021 	addu	v0,a0,v0
a08017d8:	8c450110 	lw	a1,272(v0)
a08017dc:	3c02a083 	lui	v0,0xa083
a08017e0:	24447d58 	addiu	a0,v0,32088
a08017e4:	02201021 	move	v0,s1
a08017e8:	000210c0 	sll	v0,v0,0x3
a08017ec:	00021a00 	sll	v1,v0,0x8
a08017f0:	00431021 	addu	v0,v0,v1
a08017f4:	00511023 	subu	v0,v0,s1
a08017f8:	00021100 	sll	v0,v0,0x4
a08017fc:	00511023 	subu	v0,v0,s1
a0801800:	00021080 	sll	v0,v0,0x2
a0801804:	00821021 	addu	v0,a0,v0
a0801808:	ac45013c 	sw	a1,316(v0)
a080180c:	3c02a080 	lui	v0,0xa080
a0801810:	8c44681c 	lw	a0,26652(v0)
a0801814:	3c02a080 	lui	v0,0xa080
a0801818:	24465c50 	addiu	a2,v0,23632
a080181c:	3c02a083 	lui	v0,0xa083
a0801820:	24457d58 	addiu	a1,v0,32088
a0801824:	00801021 	move	v0,a0
a0801828:	000210c0 	sll	v0,v0,0x3
a080182c:	00021a00 	sll	v1,v0,0x8
a0801830:	00431021 	addu	v0,v0,v1
a0801834:	00441023 	subu	v0,v0,a0
a0801838:	00021100 	sll	v0,v0,0x4
a080183c:	00441023 	subu	v0,v0,a0
a0801840:	00021080 	sll	v0,v0,0x2
a0801844:	00a21021 	addu	v0,a1,v0
a0801848:	ac460118 	sw	a2,280(v0)
a080184c:	3c02a080 	lui	v0,0xa080
a0801850:	8c44681c 	lw	a0,26652(v0)
a0801854:	3c02a080 	lui	v0,0xa080
a0801858:	24465c50 	addiu	a2,v0,23632
a080185c:	3c02a083 	lui	v0,0xa083
a0801860:	24457d58 	addiu	a1,v0,32088
a0801864:	00801021 	move	v0,a0
a0801868:	000210c0 	sll	v0,v0,0x3
a080186c:	00021a00 	sll	v1,v0,0x8
a0801870:	00431021 	addu	v0,v0,v1
a0801874:	00441023 	subu	v0,v0,a0
a0801878:	00021100 	sll	v0,v0,0x4
a080187c:	00441023 	subu	v0,v0,a0
a0801880:	00021080 	sll	v0,v0,0x2
a0801884:	00a21021 	addu	v0,a1,v0
a0801888:	ac460130 	sw	a2,304(v0)
a080188c:	3c02a080 	lui	v0,0xa080
a0801890:	8c44681c 	lw	a0,26652(v0)
a0801894:	3c02a083 	lui	v0,0xa083
a0801898:	24457d58 	addiu	a1,v0,32088
a080189c:	00801021 	move	v0,a0
a08018a0:	000210c0 	sll	v0,v0,0x3
a08018a4:	00021a00 	sll	v1,v0,0x8
a08018a8:	00431021 	addu	v0,v0,v1
a08018ac:	00441023 	subu	v0,v0,a0
a08018b0:	00021100 	sll	v0,v0,0x4
a08018b4:	00441023 	subu	v0,v0,a0
a08018b8:	00021080 	sll	v0,v0,0x2
a08018bc:	00a21821 	addu	v1,a1,v0
a08018c0:	3c021000 	lui	v0,0x1000
a08018c4:	34428003 	ori	v0,v0,0x8003
a08018c8:	ac62011c 	sw	v0,284(v1)
a08018cc:	3c02a080 	lui	v0,0xa080
a08018d0:	8c44681c 	lw	a0,26652(v0)
a08018d4:	3c02a083 	lui	v0,0xa083
a08018d8:	24457d58 	addiu	a1,v0,32088
a08018dc:	00801021 	move	v0,a0
a08018e0:	000210c0 	sll	v0,v0,0x3
a08018e4:	00021a00 	sll	v1,v0,0x8
a08018e8:	00431021 	addu	v0,v0,v1
a08018ec:	00441023 	subu	v0,v0,a0
a08018f0:	00021100 	sll	v0,v0,0x4
a08018f4:	00441023 	subu	v0,v0,a0
a08018f8:	00021080 	sll	v0,v0,0x2
a08018fc:	00a21821 	addu	v1,a1,v0
a0801900:	24020064 	li	v0,100
a0801904:	ac62015c 	sw	v0,348(v1)
a0801908:	3c02a080 	lui	v0,0xa080
a080190c:	8c44681c 	lw	a0,26652(v0)
a0801910:	3c05a083 	lui	a1,0xa083
a0801914:	00801021 	move	v0,a0
a0801918:	000210c0 	sll	v0,v0,0x3
a080191c:	00021a00 	sll	v1,v0,0x8
a0801920:	00431021 	addu	v0,v0,v1
a0801924:	00441023 	subu	v0,v0,a0
a0801928:	00021100 	sll	v0,v0,0x4
a080192c:	00441023 	subu	v0,v0,a0
a0801930:	00021880 	sll	v1,v0,0x2
a0801934:	24a27d58 	addiu	v0,a1,32088
a0801938:	00621821 	addu	v1,v1,v0
a080193c:	24020064 	li	v0,100
a0801940:	ac620160 	sw	v0,352(v1)
a0801944:	3c02a080 	lui	v0,0xa080
a0801948:	8c44681c 	lw	a0,26652(v0)
a080194c:	3c05a083 	lui	a1,0xa083
a0801950:	00801021 	move	v0,a0
a0801954:	000210c0 	sll	v0,v0,0x3
a0801958:	00021a00 	sll	v1,v0,0x8
a080195c:	00431021 	addu	v0,v0,v1
a0801960:	00441023 	subu	v0,v0,a0
a0801964:	00021100 	sll	v0,v0,0x4
a0801968:	00441023 	subu	v0,v0,a0
a080196c:	00021880 	sll	v1,v0,0x2
a0801970:	24a27d58 	addiu	v0,a1,32088
a0801974:	00621021 	addu	v0,v1,v0
a0801978:	ac400168 	sw	zero,360(v0)
a080197c:	3c02a080 	lui	v0,0xa080
a0801980:	8c44681c 	lw	a0,26652(v0)
a0801984:	3c02a083 	lui	v0,0xa083
a0801988:	24457d58 	addiu	a1,v0,32088
a080198c:	00801021 	move	v0,a0
a0801990:	000210c0 	sll	v0,v0,0x3
a0801994:	00021a00 	sll	v1,v0,0x8
a0801998:	00431021 	addu	v0,v0,v1
a080199c:	00441023 	subu	v0,v0,a0
a08019a0:	00021100 	sll	v0,v0,0x4
a08019a4:	00441023 	subu	v0,v0,a0
a08019a8:	00021080 	sll	v0,v0,0x2
a08019ac:	00a21021 	addu	v0,a1,v0
a08019b0:	ac400164 	sw	zero,356(v0)
a08019b4:	3c02a080 	lui	v0,0xa080
a08019b8:	8c44681c 	lw	a0,26652(v0)
a08019bc:	3c02a083 	lui	v0,0xa083
a08019c0:	24457d58 	addiu	a1,v0,32088
a08019c4:	00801021 	move	v0,a0
a08019c8:	000210c0 	sll	v0,v0,0x3
a08019cc:	00021a00 	sll	v1,v0,0x8
a08019d0:	00431021 	addu	v0,v0,v1
a08019d4:	00441023 	subu	v0,v0,a0
a08019d8:	00021100 	sll	v0,v0,0x4
a08019dc:	00441023 	subu	v0,v0,a0
a08019e0:	00021080 	sll	v0,v0,0x2
a08019e4:	00a21821 	addu	v1,a1,v0
a08019e8:	2402ffff 	li	v0,-1
a08019ec:	ac6201ac 	sw	v0,428(v1)
a08019f0:	3c02a080 	lui	v0,0xa080
a08019f4:	8c44681c 	lw	a0,26652(v0)
a08019f8:	00801021 	move	v0,a0
a08019fc:	000210c0 	sll	v0,v0,0x3
a0801a00:	00021a00 	sll	v1,v0,0x8
a0801a04:	00431021 	addu	v0,v0,v1
a0801a08:	00441023 	subu	v0,v0,a0
a0801a0c:	00021100 	sll	v0,v0,0x4
a0801a10:	00441023 	subu	v0,v0,a0
a0801a14:	00021880 	sll	v1,v0,0x2
a0801a18:	3c020002 	lui	v0,0x2
a0801a1c:	344201b0 	ori	v0,v0,0x1b0
a0801a20:	00621821 	addu	v1,v1,v0
a0801a24:	3c02a083 	lui	v0,0xa083
a0801a28:	24427d58 	addiu	v0,v0,32088
a0801a2c:	00621021 	addu	v0,v1,v0
a0801a30:	24420004 	addiu	v0,v0,4
a0801a34:	00402021 	move	a0,v0
a0801a38:	0c200f70 	jal	a0803dc0 <queue_init>
a0801a3c:	00000000 	nop
a0801a40:	3c02a080 	lui	v0,0xa080
a0801a44:	8c44681c 	lw	a0,26652(v0)
a0801a48:	00801021 	move	v0,a0
a0801a4c:	000210c0 	sll	v0,v0,0x3
a0801a50:	00021a00 	sll	v1,v0,0x8
a0801a54:	00431021 	addu	v0,v0,v1
a0801a58:	00441023 	subu	v0,v0,a0
a0801a5c:	00021100 	sll	v0,v0,0x4
a0801a60:	00441023 	subu	v0,v0,a0
a0801a64:	00021080 	sll	v0,v0,0x2
a0801a68:	00401821 	move	v1,v0
a0801a6c:	3c02a083 	lui	v0,0xa083
a0801a70:	24427d58 	addiu	v0,v0,32088
a0801a74:	00621821 	addu	v1,v1,v0
a0801a78:	3c02a080 	lui	v0,0xa080
a0801a7c:	24446820 	addiu	a0,v0,26656
a0801a80:	00602821 	move	a1,v1
a0801a84:	0c200fbc 	jal	a0803ef0 <priority_queue_push>
a0801a88:	00000000 	nop
a0801a8c:	3c03a080 	lui	v1,0xa080
a0801a90:	3c02a083 	lui	v0,0xa083
a0801a94:	24427d58 	addiu	v0,v0,32088
a0801a98:	ac62684c 	sw	v0,26700(v1)
a0801a9c:	3c03a080 	lui	v1,0xa080
a0801aa0:	24020002 	li	v0,2
a0801aa4:	ac6266d0 	sw	v0,26320(v1)
a0801aa8:	03c0e821 	move	sp,s8
a0801aac:	8fbf002c 	lw	ra,44(sp)
a0801ab0:	8fbe0028 	lw	s8,40(sp)
a0801ab4:	8fb10024 	lw	s1,36(sp)
a0801ab8:	8fb00020 	lw	s0,32(sp)
a0801abc:	27bd0030 	addiu	sp,sp,48
a0801ac0:	03e00008 	jr	ra
a0801ac4:	00000000 	nop

a0801ac8 <init_exception_handler>:
a0801ac8:	27bdfff0 	addiu	sp,sp,-16
a0801acc:	afbe000c 	sw	s8,12(sp)
a0801ad0:	03a0f021 	move	s8,sp
a0801ad4:	3c02a080 	lui	v0,0xa080
a0801ad8:	244307b4 	addiu	v1,v0,1972
a0801adc:	3c02a083 	lui	v0,0xa083
a0801ae0:	ac437cd8 	sw	v1,31960(v0)
a0801ae4:	24020001 	li	v0,1
a0801ae8:	afc20000 	sw	v0,0(s8)
a0801aec:	082006c8 	j	a0801b20 <init_exception_handler+0x58>
a0801af0:	00000000 	nop
a0801af4:	8fc30000 	lw	v1,0(s8)
a0801af8:	3c02a080 	lui	v0,0xa080
a0801afc:	24440974 	addiu	a0,v0,2420
a0801b00:	3c02a083 	lui	v0,0xa083
a0801b04:	00031880 	sll	v1,v1,0x2
a0801b08:	24427cd8 	addiu	v0,v0,31960
a0801b0c:	00621021 	addu	v0,v1,v0
a0801b10:	ac440000 	sw	a0,0(v0)
a0801b14:	8fc20000 	lw	v0,0(s8)
a0801b18:	24420001 	addiu	v0,v0,1
a0801b1c:	afc20000 	sw	v0,0(s8)
a0801b20:	8fc20000 	lw	v0,0(s8)
a0801b24:	28420020 	slti	v0,v0,32
a0801b28:	1440fff2 	bnez	v0,a0801af4 <init_exception_handler+0x2c>
a0801b2c:	00000000 	nop
a0801b30:	3c02a080 	lui	v0,0xa080
a0801b34:	24430898 	addiu	v1,v0,2200
a0801b38:	3c02a083 	lui	v0,0xa083
a0801b3c:	24427cd8 	addiu	v0,v0,31960
a0801b40:	ac430020 	sw	v1,32(v0)
a0801b44:	03c0e821 	move	sp,s8
a0801b48:	8fbe000c 	lw	s8,12(sp)
a0801b4c:	27bd0010 	addiu	sp,sp,16
a0801b50:	03e00008 	jr	ra
a0801b54:	00000000 	nop

a0801b58 <init_exception>:
a0801b58:	27bdffe8 	addiu	sp,sp,-24
a0801b5c:	afbf0014 	sw	ra,20(sp)
a0801b60:	afbe0010 	sw	s8,16(sp)
a0801b64:	03a0f021 	move	s8,sp
a0801b68:	0c2006b2 	jal	a0801ac8 <init_exception_handler>
a0801b6c:	00000000 	nop
a0801b70:	0c2000c1 	jal	a0800304 <GET_CP0_STATUS>
a0801b74:	00000000 	nop
a0801b78:	00401821 	move	v1,v0
a0801b7c:	3c02a080 	lui	v0,0xa080
a0801b80:	ac436828 	sw	v1,26664(v0)
a0801b84:	3c02a080 	lui	v0,0xa080
a0801b88:	8c436828 	lw	v1,26664(v0)
a0801b8c:	3c021000 	lui	v0,0x1000
a0801b90:	34428003 	ori	v0,v0,0x8003
a0801b94:	00621825 	or	v1,v1,v0
a0801b98:	3c02a080 	lui	v0,0xa080
a0801b9c:	ac436828 	sw	v1,26664(v0)
a0801ba0:	3c02a080 	lui	v0,0xa080
a0801ba4:	8c426828 	lw	v0,26664(v0)
a0801ba8:	00402021 	move	a0,v0
a0801bac:	0c2000ca 	jal	a0800328 <SET_CP0_STATUS>
a0801bb0:	00000000 	nop
a0801bb4:	3c03a080 	lui	v1,0xa080
a0801bb8:	3c021000 	lui	v0,0x1000
a0801bbc:	34428001 	ori	v0,v0,0x8001
a0801bc0:	ac626828 	sw	v0,26664(v1)
a0801bc4:	3c02a080 	lui	v0,0xa080
a0801bc8:	24430578 	addiu	v1,v0,1400
a0801bcc:	3c02a080 	lui	v0,0xa080
a0801bd0:	244203ec 	addiu	v0,v0,1004
a0801bd4:	00621823 	subu	v1,v1,v0
a0801bd8:	3c048000 	lui	a0,0x8000
a0801bdc:	3c02a080 	lui	v0,0xa080
a0801be0:	244503ec 	addiu	a1,v0,1004
a0801be4:	00603021 	move	a2,v1
a0801be8:	0c201292 	jal	a0804a48 <memcpy>
a0801bec:	00000000 	nop
a0801bf0:	3c02a080 	lui	v0,0xa080
a0801bf4:	24430578 	addiu	v1,v0,1400
a0801bf8:	3c02a080 	lui	v0,0xa080
a0801bfc:	244203ec 	addiu	v0,v0,1004
a0801c00:	00621823 	subu	v1,v1,v0
a0801c04:	3c04bfc0 	lui	a0,0xbfc0
a0801c08:	3c02a080 	lui	v0,0xa080
a0801c0c:	244503ec 	addiu	a1,v0,1004
a0801c10:	00603021 	move	a2,v1
a0801c14:	0c201292 	jal	a0804a48 <memcpy>
a0801c18:	00000000 	nop
a0801c1c:	3c02a080 	lui	v0,0xa080
a0801c20:	244307b4 	addiu	v1,v0,1972
a0801c24:	3c02a080 	lui	v0,0xa080
a0801c28:	244206d4 	addiu	v0,v0,1748
a0801c2c:	00621823 	subu	v1,v1,v0
a0801c30:	3c028000 	lui	v0,0x8000
a0801c34:	34440180 	ori	a0,v0,0x180
a0801c38:	3c02a080 	lui	v0,0xa080
a0801c3c:	244506d4 	addiu	a1,v0,1748
a0801c40:	00603021 	move	a2,v1
a0801c44:	0c201292 	jal	a0804a48 <memcpy>
a0801c48:	00000000 	nop
a0801c4c:	3c02a080 	lui	v0,0xa080
a0801c50:	244307b4 	addiu	v1,v0,1972
a0801c54:	3c02a080 	lui	v0,0xa080
a0801c58:	244206d4 	addiu	v0,v0,1748
a0801c5c:	00621823 	subu	v1,v1,v0
a0801c60:	3c02bfc0 	lui	v0,0xbfc0
a0801c64:	34440380 	ori	a0,v0,0x380
a0801c68:	3c02a080 	lui	v0,0xa080
a0801c6c:	244506d4 	addiu	a1,v0,1748
a0801c70:	00603021 	move	a2,v1
a0801c74:	0c201292 	jal	a0804a48 <memcpy>
a0801c78:	00000000 	nop
a0801c7c:	00002021 	move	a0,zero
a0801c80:	0c2000cd 	jal	a0800334 <SET_CP0_COUNT>
a0801c84:	00000000 	nop
a0801c88:	3c020001 	lui	v0,0x1
a0801c8c:	344486a0 	ori	a0,v0,0x86a0
a0801c90:	0c2000d0 	jal	a0800340 <SET_CP0_COMPARE>
a0801c94:	00000000 	nop
a0801c98:	03c0e821 	move	sp,s8
a0801c9c:	8fbf0014 	lw	ra,20(sp)
a0801ca0:	8fbe0010 	lw	s8,16(sp)
a0801ca4:	27bd0018 	addiu	sp,sp,24
a0801ca8:	03e00008 	jr	ra
a0801cac:	00000000 	nop

a0801cb0 <init_syscall>:
a0801cb0:	27bdfff0 	addiu	sp,sp,-16
a0801cb4:	afbe000c 	sw	s8,12(sp)
a0801cb8:	03a0f021 	move	s8,sp
a0801cbc:	afc00000 	sw	zero,0(s8)
a0801cc0:	0820073b 	j	a0801cec <init_syscall+0x3c>
a0801cc4:	00000000 	nop
a0801cc8:	8fc20000 	lw	v0,0(s8)
a0801ccc:	3c03a080 	lui	v1,0xa080
a0801cd0:	00022080 	sll	a0,v0,0x2
a0801cd4:	24627b20 	addiu	v0,v1,31520
a0801cd8:	00821021 	addu	v0,a0,v0
a0801cdc:	ac400000 	sw	zero,0(v0)
a0801ce0:	8fc20000 	lw	v0,0(s8)
a0801ce4:	24420001 	addiu	v0,v0,1
a0801ce8:	afc20000 	sw	v0,0(s8)
a0801cec:	8fc20000 	lw	v0,0(s8)
a0801cf0:	28420040 	slti	v0,v0,64
a0801cf4:	1440fff4 	bnez	v0,a0801cc8 <init_syscall+0x18>
a0801cf8:	00000000 	nop
a0801cfc:	3c02a080 	lui	v0,0xa080
a0801d00:	24432ffc 	addiu	v1,v0,12284
a0801d04:	3c02a080 	lui	v0,0xa080
a0801d08:	24427b20 	addiu	v0,v0,31520
a0801d0c:	ac430008 	sw	v1,8(v0)
a0801d10:	3c02a080 	lui	v0,0xa080
a0801d14:	24433604 	addiu	v1,v0,13828
a0801d18:	3c02a080 	lui	v0,0xa080
a0801d1c:	24427b20 	addiu	v0,v0,31520
a0801d20:	ac430024 	sw	v1,36(v0)
a0801d24:	3c02a080 	lui	v0,0xa080
a0801d28:	244330a0 	addiu	v1,v0,12448
a0801d2c:	3c02a080 	lui	v0,0xa080
a0801d30:	24427b20 	addiu	v0,v0,31520
a0801d34:	ac430028 	sw	v1,40(v0)
a0801d38:	3c02a080 	lui	v0,0xa080
a0801d3c:	24433108 	addiu	v1,v0,12552
a0801d40:	3c02a080 	lui	v0,0xa080
a0801d44:	24427b20 	addiu	v0,v0,31520
a0801d48:	ac43002c 	sw	v1,44(v0)
a0801d4c:	3c02a080 	lui	v0,0xa080
a0801d50:	244331bc 	addiu	v1,v0,12732
a0801d54:	3c02a080 	lui	v0,0xa080
a0801d58:	24427b20 	addiu	v0,v0,31520
a0801d5c:	ac430030 	sw	v1,48(v0)
a0801d60:	3c02a080 	lui	v0,0xa080
a0801d64:	244310c8 	addiu	v1,v0,4296
a0801d68:	3c02a080 	lui	v0,0xa080
a0801d6c:	24427b20 	addiu	v0,v0,31520
a0801d70:	ac430050 	sw	v1,80(v0)
a0801d74:	3c02a080 	lui	v0,0xa080
a0801d78:	24431088 	addiu	v1,v0,4232
a0801d7c:	3c02a080 	lui	v0,0xa080
a0801d80:	24427b20 	addiu	v0,v0,31520
a0801d84:	ac430058 	sw	v1,88(v0)
a0801d88:	3c02a080 	lui	v0,0xa080
a0801d8c:	24431150 	addiu	v1,v0,4432
a0801d90:	3c02a080 	lui	v0,0xa080
a0801d94:	24427b20 	addiu	v0,v0,31520
a0801d98:	ac43005c 	sw	v1,92(v0)
a0801d9c:	3c02a080 	lui	v0,0xa080
a0801da0:	24433378 	addiu	v1,v0,13176
a0801da4:	3c02a080 	lui	v0,0xa080
a0801da8:	24427b20 	addiu	v0,v0,31520
a0801dac:	ac43000c 	sw	v1,12(v0)
a0801db0:	3c02a080 	lui	v0,0xa080
a0801db4:	24433320 	addiu	v1,v0,13088
a0801db8:	3c02a080 	lui	v0,0xa080
a0801dbc:	24427b20 	addiu	v0,v0,31520
a0801dc0:	ac430010 	sw	v1,16(v0)
a0801dc4:	3c02a080 	lui	v0,0xa080
a0801dc8:	24433630 	addiu	v1,v0,13872
a0801dcc:	3c02a080 	lui	v0,0xa080
a0801dd0:	24427b20 	addiu	v0,v0,31520
a0801dd4:	ac430014 	sw	v1,20(v0)
a0801dd8:	3c02a080 	lui	v0,0xa080
a0801ddc:	244338ec 	addiu	v1,v0,14572
a0801de0:	3c02a080 	lui	v0,0xa080
a0801de4:	24427b20 	addiu	v0,v0,31520
a0801de8:	ac430018 	sw	v1,24(v0)
a0801dec:	3c02a080 	lui	v0,0xa080
a0801df0:	24433b00 	addiu	v1,v0,15104
a0801df4:	3c02a080 	lui	v0,0xa080
a0801df8:	24427b20 	addiu	v0,v0,31520
a0801dfc:	ac43001c 	sw	v1,28(v0)
a0801e00:	3c02a080 	lui	v0,0xa080
a0801e04:	24433c2c 	addiu	v1,v0,15404
a0801e08:	3c02a080 	lui	v0,0xa080
a0801e0c:	24427b20 	addiu	v0,v0,31520
a0801e10:	ac430020 	sw	v1,32(v0)
a0801e14:	3c02a080 	lui	v0,0xa080
a0801e18:	244320bc 	addiu	v1,v0,8380
a0801e1c:	3c02a080 	lui	v0,0xa080
a0801e20:	24427b20 	addiu	v0,v0,31520
a0801e24:	ac430078 	sw	v1,120(v0)
a0801e28:	3c02a080 	lui	v0,0xa080
a0801e2c:	24432104 	addiu	v1,v0,8452
a0801e30:	3c02a080 	lui	v0,0xa080
a0801e34:	24427b20 	addiu	v0,v0,31520
a0801e38:	ac43007c 	sw	v1,124(v0)
a0801e3c:	3c02a080 	lui	v0,0xa080
a0801e40:	244321a8 	addiu	v1,v0,8616
a0801e44:	3c02a080 	lui	v0,0xa080
a0801e48:	24427b20 	addiu	v0,v0,31520
a0801e4c:	ac430080 	sw	v1,128(v0)
a0801e50:	3c02a080 	lui	v0,0xa080
a0801e54:	24432310 	addiu	v1,v0,8976
a0801e58:	3c02a080 	lui	v0,0xa080
a0801e5c:	24427b20 	addiu	v0,v0,31520
a0801e60:	ac430034 	sw	v1,52(v0)
a0801e64:	3c02a080 	lui	v0,0xa080
a0801e68:	24432368 	addiu	v1,v0,9064
a0801e6c:	3c02a080 	lui	v0,0xa080
a0801e70:	24427b20 	addiu	v0,v0,31520
a0801e74:	ac430038 	sw	v1,56(v0)
a0801e78:	3c02a080 	lui	v0,0xa080
a0801e7c:	24432580 	addiu	v1,v0,9600
a0801e80:	3c02a080 	lui	v0,0xa080
a0801e84:	24427b20 	addiu	v0,v0,31520
a0801e88:	ac43003c 	sw	v1,60(v0)
a0801e8c:	3c02a080 	lui	v0,0xa080
a0801e90:	244325d0 	addiu	v1,v0,9680
a0801e94:	3c02a080 	lui	v0,0xa080
a0801e98:	24427b20 	addiu	v0,v0,31520
a0801e9c:	ac430040 	sw	v1,64(v0)
a0801ea0:	3c02a080 	lui	v0,0xa080
a0801ea4:	24432634 	addiu	v1,v0,9780
a0801ea8:	3c02a080 	lui	v0,0xa080
a0801eac:	24427b20 	addiu	v0,v0,31520
a0801eb0:	ac430044 	sw	v1,68(v0)
a0801eb4:	3c02a080 	lui	v0,0xa080
a0801eb8:	24432410 	addiu	v1,v0,9232
a0801ebc:	3c02a080 	lui	v0,0xa080
a0801ec0:	24427b20 	addiu	v0,v0,31520
a0801ec4:	ac430048 	sw	v1,72(v0)
a0801ec8:	3c02a080 	lui	v0,0xa080
a0801ecc:	24432458 	addiu	v1,v0,9304
a0801ed0:	3c02a080 	lui	v0,0xa080
a0801ed4:	24427b20 	addiu	v0,v0,31520
a0801ed8:	ac43004c 	sw	v1,76(v0)
a0801edc:	3c02a080 	lui	v0,0xa080
a0801ee0:	244324d0 	addiu	v1,v0,9424
a0801ee4:	3c02a080 	lui	v0,0xa080
a0801ee8:	24427b20 	addiu	v0,v0,31520
a0801eec:	ac430060 	sw	v1,96(v0)
a0801ef0:	3c02a080 	lui	v0,0xa080
a0801ef4:	24432534 	addiu	v1,v0,9524
a0801ef8:	3c02a080 	lui	v0,0xa080
a0801efc:	24427b20 	addiu	v0,v0,31520
a0801f00:	ac430064 	sw	v1,100(v0)
a0801f04:	03c0e821 	move	sp,s8
a0801f08:	8fbe000c 	lw	s8,12(sp)
a0801f0c:	27bd0010 	addiu	sp,sp,16
a0801f10:	03e00008 	jr	ra
a0801f14:	00000000 	nop
	...

a0801f20 <irq_timer>:
a0801f20:	27bdffe8 	addiu	sp,sp,-24
a0801f24:	afbf0014 	sw	ra,20(sp)
a0801f28:	afbe0010 	sw	s8,16(sp)
a0801f2c:	03a0f021 	move	s8,sp
a0801f30:	0c200454 	jal	a0801150 <screen_reflush>
a0801f34:	00000000 	nop
a0801f38:	3c02a080 	lui	v0,0xa080
a0801f3c:	8c437b10 	lw	v1,31504(v0)
a0801f40:	3c020001 	lui	v0,0x1
a0801f44:	344286a0 	ori	v0,v0,0x86a0
a0801f48:	00621821 	addu	v1,v1,v0
a0801f4c:	3c02a080 	lui	v0,0xa080
a0801f50:	ac437b10 	sw	v1,31504(v0)
a0801f54:	0c20015e 	jal	a0800578 <do_scheduler>
a0801f58:	00000000 	nop
a0801f5c:	03c0e821 	move	sp,s8
a0801f60:	8fbf0014 	lw	ra,20(sp)
a0801f64:	8fbe0010 	lw	s8,16(sp)
a0801f68:	27bd0018 	addiu	sp,sp,24
a0801f6c:	03e00008 	jr	ra
a0801f70:	00000000 	nop

a0801f74 <other_exception_handler>:
a0801f74:	27bdfff8 	addiu	sp,sp,-8
a0801f78:	afbe0004 	sw	s8,4(sp)
a0801f7c:	03a0f021 	move	s8,sp
a0801f80:	3c02a080 	lui	v0,0xa080
a0801f84:	8c437b10 	lw	v1,31504(v0)
a0801f88:	3c020001 	lui	v0,0x1
a0801f8c:	344286a0 	ori	v0,v0,0x86a0
a0801f90:	00621821 	addu	v1,v1,v0
a0801f94:	3c02a080 	lui	v0,0xa080
a0801f98:	ac437b10 	sw	v1,31504(v0)
a0801f9c:	03c0e821 	move	sp,s8
a0801fa0:	8fbe0004 	lw	s8,4(sp)
a0801fa4:	27bd0008 	addiu	sp,sp,8
a0801fa8:	03e00008 	jr	ra
a0801fac:	00000000 	nop

a0801fb0 <interrupt_helper>:
a0801fb0:	27bdffe0 	addiu	sp,sp,-32
a0801fb4:	afbf001c 	sw	ra,28(sp)
a0801fb8:	afbe0018 	sw	s8,24(sp)
a0801fbc:	03a0f021 	move	s8,sp
a0801fc0:	afc40020 	sw	a0,32(s8)
a0801fc4:	afc50024 	sw	a1,36(s8)
a0801fc8:	8fc30020 	lw	v1,32(s8)
a0801fcc:	8fc20024 	lw	v0,36(s8)
a0801fd0:	00621024 	and	v0,v1,v0
a0801fd4:	3042ff00 	andi	v0,v0,0xff00
a0801fd8:	afc20010 	sw	v0,16(s8)
a0801fdc:	8fc20010 	lw	v0,16(s8)
a0801fe0:	30428000 	andi	v0,v0,0x8000
a0801fe4:	10400005 	beqz	v0,a0801ffc <interrupt_helper+0x4c>
a0801fe8:	00000000 	nop
a0801fec:	0c2007c8 	jal	a0801f20 <irq_timer>
a0801ff0:	00000000 	nop
a0801ff4:	08200801 	j	a0802004 <interrupt_helper+0x54>
a0801ff8:	00000000 	nop
a0801ffc:	0c2007dd 	jal	a0801f74 <other_exception_handler>
a0802000:	00000000 	nop
a0802004:	03c0e821 	move	sp,s8
a0802008:	8fbf001c 	lw	ra,28(sp)
a080200c:	8fbe0018 	lw	s8,24(sp)
a0802010:	27bd0020 	addiu	sp,sp,32
a0802014:	03e00008 	jr	ra
a0802018:	00000000 	nop
a080201c:	00000000 	nop

a0802020 <spin_lock_init>:
a0802020:	27bdfff8 	addiu	sp,sp,-8
a0802024:	afbe0004 	sw	s8,4(sp)
a0802028:	03a0f021 	move	s8,sp
a080202c:	afc40008 	sw	a0,8(s8)
a0802030:	8fc20008 	lw	v0,8(s8)
a0802034:	ac400000 	sw	zero,0(v0)
a0802038:	03c0e821 	move	sp,s8
a080203c:	8fbe0004 	lw	s8,4(sp)
a0802040:	27bd0008 	addiu	sp,sp,8
a0802044:	03e00008 	jr	ra
a0802048:	00000000 	nop

a080204c <spin_lock_acquire>:
a080204c:	27bdfff8 	addiu	sp,sp,-8
a0802050:	afbe0004 	sw	s8,4(sp)
a0802054:	03a0f021 	move	s8,sp
a0802058:	afc40008 	sw	a0,8(s8)
a080205c:	8fc20008 	lw	v0,8(s8)
a0802060:	8c430000 	lw	v1,0(v0)
a0802064:	24020001 	li	v0,1
a0802068:	1062fffc 	beq	v1,v0,a080205c <spin_lock_acquire+0x10>
a080206c:	00000000 	nop
a0802070:	8fc30008 	lw	v1,8(s8)
a0802074:	24020001 	li	v0,1
a0802078:	ac620000 	sw	v0,0(v1)
a080207c:	03c0e821 	move	sp,s8
a0802080:	8fbe0004 	lw	s8,4(sp)
a0802084:	27bd0008 	addiu	sp,sp,8
a0802088:	03e00008 	jr	ra
a080208c:	00000000 	nop

a0802090 <spin_lock_release>:
a0802090:	27bdfff8 	addiu	sp,sp,-8
a0802094:	afbe0004 	sw	s8,4(sp)
a0802098:	03a0f021 	move	s8,sp
a080209c:	afc40008 	sw	a0,8(s8)
a08020a0:	8fc20008 	lw	v0,8(s8)
a08020a4:	ac400000 	sw	zero,0(v0)
a08020a8:	03c0e821 	move	sp,s8
a08020ac:	8fbe0004 	lw	s8,4(sp)
a08020b0:	27bd0008 	addiu	sp,sp,8
a08020b4:	03e00008 	jr	ra
a08020b8:	00000000 	nop

a08020bc <do_mutex_lock_init>:
a08020bc:	27bdffe8 	addiu	sp,sp,-24
a08020c0:	afbf0014 	sw	ra,20(sp)
a08020c4:	afbe0010 	sw	s8,16(sp)
a08020c8:	03a0f021 	move	s8,sp
a08020cc:	afc40018 	sw	a0,24(s8)
a08020d0:	8fc20018 	lw	v0,24(s8)
a08020d4:	ac400000 	sw	zero,0(v0)
a08020d8:	8fc20018 	lw	v0,24(s8)
a08020dc:	24420004 	addiu	v0,v0,4
a08020e0:	00402021 	move	a0,v0
a08020e4:	0c200f70 	jal	a0803dc0 <queue_init>
a08020e8:	00000000 	nop
a08020ec:	03c0e821 	move	sp,s8
a08020f0:	8fbf0014 	lw	ra,20(sp)
a08020f4:	8fbe0010 	lw	s8,16(sp)
a08020f8:	27bd0018 	addiu	sp,sp,24
a08020fc:	03e00008 	jr	ra
a0802100:	00000000 	nop

a0802104 <do_mutex_lock_acquire>:
a0802104:	27bdffe8 	addiu	sp,sp,-24
a0802108:	afbf0014 	sw	ra,20(sp)
a080210c:	afbe0010 	sw	s8,16(sp)
a0802110:	03a0f021 	move	s8,sp
a0802114:	afc40018 	sw	a0,24(s8)
a0802118:	0820084f 	j	a080213c <do_mutex_lock_acquire+0x38>
a080211c:	00000000 	nop
a0802120:	8fc20018 	lw	v0,24(s8)
a0802124:	24420004 	addiu	v0,v0,4
a0802128:	00402021 	move	a0,v0
a080212c:	0c200c28 	jal	a08030a0 <do_block>
a0802130:	00000000 	nop
a0802134:	0c20015e 	jal	a0800578 <do_scheduler>
a0802138:	00000000 	nop
a080213c:	8fc20018 	lw	v0,24(s8)
a0802140:	8c430000 	lw	v1,0(v0)
a0802144:	24020001 	li	v0,1
a0802148:	1062fff5 	beq	v1,v0,a0802120 <do_mutex_lock_acquire+0x1c>
a080214c:	00000000 	nop
a0802150:	8fc30018 	lw	v1,24(s8)
a0802154:	24020001 	li	v0,1
a0802158:	ac620000 	sw	v0,0(v1)
a080215c:	3c02a080 	lui	v0,0xa080
a0802160:	8c44684c 	lw	a0,26700(v0)
a0802164:	3c02a080 	lui	v0,0xa080
a0802168:	8c42684c 	lw	v0,26700(v0)
a080216c:	8c4301ac 	lw	v1,428(v0)
a0802170:	24630001 	addiu	v1,v1,1
a0802174:	ac4301ac 	sw	v1,428(v0)
a0802178:	8c4201ac 	lw	v0,428(v0)
a080217c:	2442005a 	addiu	v0,v0,90
a0802180:	00021080 	sll	v0,v0,0x2
a0802184:	00821021 	addu	v0,a0,v0
a0802188:	8fc30018 	lw	v1,24(s8)
a080218c:	ac430004 	sw	v1,4(v0)
a0802190:	03c0e821 	move	sp,s8
a0802194:	8fbf0014 	lw	ra,20(sp)
a0802198:	8fbe0010 	lw	s8,16(sp)
a080219c:	27bd0018 	addiu	sp,sp,24
a08021a0:	03e00008 	jr	ra
a08021a4:	00000000 	nop

a08021a8 <do_mutex_lock_release>:
a08021a8:	27bdffe0 	addiu	sp,sp,-32
a08021ac:	afbf001c 	sw	ra,28(sp)
a08021b0:	afbe0018 	sw	s8,24(sp)
a08021b4:	03a0f021 	move	s8,sp
a08021b8:	afc40020 	sw	a0,32(s8)
a08021bc:	afc00014 	sw	zero,20(s8)
a08021c0:	082008a4 	j	a0802290 <do_mutex_lock_release+0xe8>
a08021c4:	00000000 	nop
a08021c8:	3c02a080 	lui	v0,0xa080
a08021cc:	8c43684c 	lw	v1,26700(v0)
a08021d0:	8fc20014 	lw	v0,20(s8)
a08021d4:	2442005a 	addiu	v0,v0,90
a08021d8:	00021080 	sll	v0,v0,0x2
a08021dc:	00621021 	addu	v0,v1,v0
a08021e0:	8c430004 	lw	v1,4(v0)
a08021e4:	8fc20020 	lw	v0,32(s8)
a08021e8:	14620026 	bne	v1,v0,a0802284 <do_mutex_lock_release+0xdc>
a08021ec:	00000000 	nop
a08021f0:	8fc20014 	lw	v0,20(s8)
a08021f4:	24420001 	addiu	v0,v0,1
a08021f8:	afc20010 	sw	v0,16(s8)
a08021fc:	08200893 	j	a080224c <do_mutex_lock_release+0xa4>
a0802200:	00000000 	nop
a0802204:	3c02a080 	lui	v0,0xa080
a0802208:	8c45684c 	lw	a1,26700(v0)
a080220c:	8fc20010 	lw	v0,16(s8)
a0802210:	2444ffff 	addiu	a0,v0,-1
a0802214:	3c02a080 	lui	v0,0xa080
a0802218:	8c43684c 	lw	v1,26700(v0)
a080221c:	8fc20010 	lw	v0,16(s8)
a0802220:	2442005a 	addiu	v0,v0,90
a0802224:	00021080 	sll	v0,v0,0x2
a0802228:	00621021 	addu	v0,v1,v0
a080222c:	8c430004 	lw	v1,4(v0)
a0802230:	2482005a 	addiu	v0,a0,90
a0802234:	00021080 	sll	v0,v0,0x2
a0802238:	00a21021 	addu	v0,a1,v0
a080223c:	ac430004 	sw	v1,4(v0)
a0802240:	8fc20010 	lw	v0,16(s8)
a0802244:	24420001 	addiu	v0,v0,1
a0802248:	afc20010 	sw	v0,16(s8)
a080224c:	3c02a080 	lui	v0,0xa080
a0802250:	8c42684c 	lw	v0,26700(v0)
a0802254:	8c4301ac 	lw	v1,428(v0)
a0802258:	8fc20010 	lw	v0,16(s8)
a080225c:	0062102a 	slt	v0,v1,v0
a0802260:	1040ffe8 	beqz	v0,a0802204 <do_mutex_lock_release+0x5c>
a0802264:	00000000 	nop
a0802268:	3c02a080 	lui	v0,0xa080
a080226c:	8c43684c 	lw	v1,26700(v0)
a0802270:	8c6201ac 	lw	v0,428(v1)
a0802274:	2442ffff 	addiu	v0,v0,-1
a0802278:	ac6201ac 	sw	v0,428(v1)
a080227c:	082008ab 	j	a08022ac <do_mutex_lock_release+0x104>
a0802280:	00000000 	nop
a0802284:	8fc20014 	lw	v0,20(s8)
a0802288:	24420001 	addiu	v0,v0,1
a080228c:	afc20014 	sw	v0,20(s8)
a0802290:	3c02a080 	lui	v0,0xa080
a0802294:	8c42684c 	lw	v0,26700(v0)
a0802298:	8c4301ac 	lw	v1,428(v0)
a080229c:	8fc20014 	lw	v0,20(s8)
a08022a0:	0062102a 	slt	v0,v1,v0
a08022a4:	1040ffc8 	beqz	v0,a08021c8 <do_mutex_lock_release+0x20>
a08022a8:	00000000 	nop
a08022ac:	8fc20020 	lw	v0,32(s8)
a08022b0:	24420004 	addiu	v0,v0,4
a08022b4:	00402021 	move	a0,v0
a08022b8:	0c200f7f 	jal	a0803dfc <queue_is_empty>
a08022bc:	00000000 	nop
a08022c0:	14400006 	bnez	v0,a08022dc <do_mutex_lock_release+0x134>
a08022c4:	00000000 	nop
a08022c8:	8fc20020 	lw	v0,32(s8)
a08022cc:	24420004 	addiu	v0,v0,4
a08022d0:	00402021 	move	a0,v0
a08022d4:	0c200c42 	jal	a0803108 <do_unblock_one>
a08022d8:	00000000 	nop
a08022dc:	8fc20020 	lw	v0,32(s8)
a08022e0:	ac400000 	sw	zero,0(v0)
a08022e4:	0c20015e 	jal	a0800578 <do_scheduler>
a08022e8:	00000000 	nop
a08022ec:	03c0e821 	move	sp,s8
a08022f0:	8fbf001c 	lw	ra,28(sp)
a08022f4:	8fbe0018 	lw	s8,24(sp)
a08022f8:	27bd0020 	addiu	sp,sp,32
a08022fc:	03e00008 	jr	ra
a0802300:	00000000 	nop
	...

a0802310 <do_barrier_init>:
a0802310:	27bdffe8 	addiu	sp,sp,-24
a0802314:	afbf0014 	sw	ra,20(sp)
a0802318:	afbe0010 	sw	s8,16(sp)
a080231c:	03a0f021 	move	s8,sp
a0802320:	afc40018 	sw	a0,24(s8)
a0802324:	afc5001c 	sw	a1,28(s8)
a0802328:	8fc3001c 	lw	v1,28(s8)
a080232c:	8fc20018 	lw	v0,24(s8)
a0802330:	ac430000 	sw	v1,0(v0)
a0802334:	8fc20018 	lw	v0,24(s8)
a0802338:	ac400004 	sw	zero,4(v0)
a080233c:	8fc20018 	lw	v0,24(s8)
a0802340:	24420008 	addiu	v0,v0,8
a0802344:	00402021 	move	a0,v0
a0802348:	0c200f70 	jal	a0803dc0 <queue_init>
a080234c:	00000000 	nop
a0802350:	03c0e821 	move	sp,s8
a0802354:	8fbf0014 	lw	ra,20(sp)
a0802358:	8fbe0010 	lw	s8,16(sp)
a080235c:	27bd0018 	addiu	sp,sp,24
a0802360:	03e00008 	jr	ra
a0802364:	00000000 	nop

a0802368 <do_barrier_wait>:
a0802368:	27bdffe8 	addiu	sp,sp,-24
a080236c:	afbf0014 	sw	ra,20(sp)
a0802370:	afbe0010 	sw	s8,16(sp)
a0802374:	03a0f021 	move	s8,sp
a0802378:	afc40018 	sw	a0,24(s8)
a080237c:	8fc20018 	lw	v0,24(s8)
a0802380:	8c420004 	lw	v0,4(v0)
a0802384:	24430001 	addiu	v1,v0,1
a0802388:	8fc20018 	lw	v0,24(s8)
a080238c:	ac430004 	sw	v1,4(v0)
a0802390:	8fc20018 	lw	v0,24(s8)
a0802394:	8c430000 	lw	v1,0(v0)
a0802398:	8fc20018 	lw	v0,24(s8)
a080239c:	8c420004 	lw	v0,4(v0)
a08023a0:	0043102b 	sltu	v0,v0,v1
a08023a4:	1040000a 	beqz	v0,a08023d0 <do_barrier_wait+0x68>
a08023a8:	00000000 	nop
a08023ac:	8fc20018 	lw	v0,24(s8)
a08023b0:	24420008 	addiu	v0,v0,8
a08023b4:	00402021 	move	a0,v0
a08023b8:	0c200c28 	jal	a08030a0 <do_block>
a08023bc:	00000000 	nop
a08023c0:	0c20015e 	jal	a0800578 <do_scheduler>
a08023c4:	00000000 	nop
a08023c8:	082008fb 	j	a08023ec <do_barrier_wait+0x84>
a08023cc:	00000000 	nop
a08023d0:	8fc20018 	lw	v0,24(s8)
a08023d4:	24420008 	addiu	v0,v0,8
a08023d8:	00402021 	move	a0,v0
a08023dc:	0c200c6f 	jal	a08031bc <do_unblock_all>
a08023e0:	00000000 	nop
a08023e4:	8fc20018 	lw	v0,24(s8)
a08023e8:	ac400004 	sw	zero,4(v0)
a08023ec:	03c0e821 	move	sp,s8
a08023f0:	8fbf0014 	lw	ra,20(sp)
a08023f4:	8fbe0010 	lw	s8,16(sp)
a08023f8:	27bd0018 	addiu	sp,sp,24
a08023fc:	03e00008 	jr	ra
a0802400:	00000000 	nop
	...

a0802410 <do_condition_init>:
a0802410:	27bdffe8 	addiu	sp,sp,-24
a0802414:	afbf0014 	sw	ra,20(sp)
a0802418:	afbe0010 	sw	s8,16(sp)
a080241c:	03a0f021 	move	s8,sp
a0802420:	afc40018 	sw	a0,24(s8)
a0802424:	8fc20018 	lw	v0,24(s8)
a0802428:	ac400000 	sw	zero,0(v0)
a080242c:	8fc20018 	lw	v0,24(s8)
a0802430:	24420004 	addiu	v0,v0,4
a0802434:	00402021 	move	a0,v0
a0802438:	0c200f70 	jal	a0803dc0 <queue_init>
a080243c:	00000000 	nop
a0802440:	03c0e821 	move	sp,s8
a0802444:	8fbf0014 	lw	ra,20(sp)
a0802448:	8fbe0010 	lw	s8,16(sp)
a080244c:	27bd0018 	addiu	sp,sp,24
a0802450:	03e00008 	jr	ra
a0802454:	00000000 	nop

a0802458 <do_condition_wait>:
a0802458:	27bdffe8 	addiu	sp,sp,-24
a080245c:	afbf0014 	sw	ra,20(sp)
a0802460:	afbe0010 	sw	s8,16(sp)
a0802464:	03a0f021 	move	s8,sp
a0802468:	afc40018 	sw	a0,24(s8)
a080246c:	afc5001c 	sw	a1,28(s8)
a0802470:	8fc2001c 	lw	v0,28(s8)
a0802474:	8c420000 	lw	v0,0(v0)
a0802478:	24430001 	addiu	v1,v0,1
a080247c:	8fc2001c 	lw	v0,28(s8)
a0802480:	ac430000 	sw	v1,0(v0)
a0802484:	8fc2001c 	lw	v0,28(s8)
a0802488:	24420004 	addiu	v0,v0,4
a080248c:	00402021 	move	a0,v0
a0802490:	0c200c28 	jal	a08030a0 <do_block>
a0802494:	00000000 	nop
a0802498:	8fc40018 	lw	a0,24(s8)
a080249c:	0c20086a 	jal	a08021a8 <do_mutex_lock_release>
a08024a0:	00000000 	nop
a08024a4:	0c20015e 	jal	a0800578 <do_scheduler>
a08024a8:	00000000 	nop
a08024ac:	8fc40018 	lw	a0,24(s8)
a08024b0:	0c200841 	jal	a0802104 <do_mutex_lock_acquire>
a08024b4:	00000000 	nop
a08024b8:	03c0e821 	move	sp,s8
a08024bc:	8fbf0014 	lw	ra,20(sp)
a08024c0:	8fbe0010 	lw	s8,16(sp)
a08024c4:	27bd0018 	addiu	sp,sp,24
a08024c8:	03e00008 	jr	ra
a08024cc:	00000000 	nop

a08024d0 <do_condition_signal>:
a08024d0:	27bdffe8 	addiu	sp,sp,-24
a08024d4:	afbf0014 	sw	ra,20(sp)
a08024d8:	afbe0010 	sw	s8,16(sp)
a08024dc:	03a0f021 	move	s8,sp
a08024e0:	afc40018 	sw	a0,24(s8)
a08024e4:	8fc20018 	lw	v0,24(s8)
a08024e8:	8c420000 	lw	v0,0(v0)
a08024ec:	18400006 	blez	v0,a0802508 <do_condition_signal+0x38>
a08024f0:	00000000 	nop
a08024f4:	8fc20018 	lw	v0,24(s8)
a08024f8:	24420004 	addiu	v0,v0,4
a08024fc:	00402021 	move	a0,v0
a0802500:	0c200c42 	jal	a0803108 <do_unblock_one>
a0802504:	00000000 	nop
a0802508:	8fc20018 	lw	v0,24(s8)
a080250c:	8c420000 	lw	v0,0(v0)
a0802510:	2443ffff 	addiu	v1,v0,-1
a0802514:	8fc20018 	lw	v0,24(s8)
a0802518:	ac430000 	sw	v1,0(v0)
a080251c:	03c0e821 	move	sp,s8
a0802520:	8fbf0014 	lw	ra,20(sp)
a0802524:	8fbe0010 	lw	s8,16(sp)
a0802528:	27bd0018 	addiu	sp,sp,24
a080252c:	03e00008 	jr	ra
a0802530:	00000000 	nop

a0802534 <do_condition_broadcast>:
a0802534:	27bdffe8 	addiu	sp,sp,-24
a0802538:	afbf0014 	sw	ra,20(sp)
a080253c:	afbe0010 	sw	s8,16(sp)
a0802540:	03a0f021 	move	s8,sp
a0802544:	afc40018 	sw	a0,24(s8)
a0802548:	8fc20018 	lw	v0,24(s8)
a080254c:	24420004 	addiu	v0,v0,4
a0802550:	00402021 	move	a0,v0
a0802554:	0c200c6f 	jal	a08031bc <do_unblock_all>
a0802558:	00000000 	nop
a080255c:	03c0e821 	move	sp,s8
a0802560:	8fbf0014 	lw	ra,20(sp)
a0802564:	8fbe0010 	lw	s8,16(sp)
a0802568:	27bd0018 	addiu	sp,sp,24
a080256c:	03e00008 	jr	ra
a0802570:	00000000 	nop
	...

a0802580 <do_semaphore_init>:
a0802580:	27bdffe8 	addiu	sp,sp,-24
a0802584:	afbf0014 	sw	ra,20(sp)
a0802588:	afbe0010 	sw	s8,16(sp)
a080258c:	03a0f021 	move	s8,sp
a0802590:	afc40018 	sw	a0,24(s8)
a0802594:	afc5001c 	sw	a1,28(s8)
a0802598:	8fc30018 	lw	v1,24(s8)
a080259c:	8fc2001c 	lw	v0,28(s8)
a08025a0:	ac620000 	sw	v0,0(v1)
a08025a4:	8fc20018 	lw	v0,24(s8)
a08025a8:	24420004 	addiu	v0,v0,4
a08025ac:	00402021 	move	a0,v0
a08025b0:	0c200f70 	jal	a0803dc0 <queue_init>
a08025b4:	00000000 	nop
a08025b8:	03c0e821 	move	sp,s8
a08025bc:	8fbf0014 	lw	ra,20(sp)
a08025c0:	8fbe0010 	lw	s8,16(sp)
a08025c4:	27bd0018 	addiu	sp,sp,24
a08025c8:	03e00008 	jr	ra
a08025cc:	00000000 	nop

a08025d0 <do_semaphore_up>:
a08025d0:	27bdffe8 	addiu	sp,sp,-24
a08025d4:	afbf0014 	sw	ra,20(sp)
a08025d8:	afbe0010 	sw	s8,16(sp)
a08025dc:	03a0f021 	move	s8,sp
a08025e0:	afc40018 	sw	a0,24(s8)
a08025e4:	8fc20018 	lw	v0,24(s8)
a08025e8:	8c420000 	lw	v0,0(v0)
a08025ec:	24430001 	addiu	v1,v0,1
a08025f0:	8fc20018 	lw	v0,24(s8)
a08025f4:	ac430000 	sw	v1,0(v0)
a08025f8:	8fc20018 	lw	v0,24(s8)
a08025fc:	8c420000 	lw	v0,0(v0)
a0802600:	1c400006 	bgtz	v0,a080261c <do_semaphore_up+0x4c>
a0802604:	00000000 	nop
a0802608:	8fc20018 	lw	v0,24(s8)
a080260c:	24420004 	addiu	v0,v0,4
a0802610:	00402021 	move	a0,v0
a0802614:	0c200c42 	jal	a0803108 <do_unblock_one>
a0802618:	00000000 	nop
a080261c:	03c0e821 	move	sp,s8
a0802620:	8fbf0014 	lw	ra,20(sp)
a0802624:	8fbe0010 	lw	s8,16(sp)
a0802628:	27bd0018 	addiu	sp,sp,24
a080262c:	03e00008 	jr	ra
a0802630:	00000000 	nop

a0802634 <do_semaphore_down>:
a0802634:	27bdffe8 	addiu	sp,sp,-24
a0802638:	afbf0014 	sw	ra,20(sp)
a080263c:	afbe0010 	sw	s8,16(sp)
a0802640:	03a0f021 	move	s8,sp
a0802644:	afc40018 	sw	a0,24(s8)
a0802648:	8fc20018 	lw	v0,24(s8)
a080264c:	8c420000 	lw	v0,0(v0)
a0802650:	2443ffff 	addiu	v1,v0,-1
a0802654:	8fc20018 	lw	v0,24(s8)
a0802658:	ac430000 	sw	v1,0(v0)
a080265c:	8fc20018 	lw	v0,24(s8)
a0802660:	8c420000 	lw	v0,0(v0)
a0802664:	04410008 	bgez	v0,a0802688 <do_semaphore_down+0x54>
a0802668:	00000000 	nop
a080266c:	8fc20018 	lw	v0,24(s8)
a0802670:	24420004 	addiu	v0,v0,4
a0802674:	00402021 	move	a0,v0
a0802678:	0c200c28 	jal	a08030a0 <do_block>
a080267c:	00000000 	nop
a0802680:	0c20015e 	jal	a0800578 <do_scheduler>
a0802684:	00000000 	nop
a0802688:	03c0e821 	move	sp,s8
a080268c:	8fbf0014 	lw	ra,20(sp)
a0802690:	8fbe0010 	lw	s8,16(sp)
a0802694:	27bd0018 	addiu	sp,sp,24
a0802698:	03e00008 	jr	ra
a080269c:	00000000 	nop

a08026a0 <palloc>:
a08026a0:	27bdfff0 	addiu	sp,sp,-16
a08026a4:	afbe000c 	sw	s8,12(sp)
a08026a8:	03a0f021 	move	s8,sp
a08026ac:	3c02a080 	lui	v0,0xa080
a08026b0:	8c42682c 	lw	v0,26668(v0)
a08026b4:	afc20000 	sw	v0,0(s8)
a08026b8:	3c02a080 	lui	v0,0xa080
a08026bc:	8c43682c 	lw	v1,26668(v0)
a08026c0:	3c02a080 	lui	v0,0xa080
a08026c4:	2442682c 	addiu	v0,v0,26668
a08026c8:	8c420004 	lw	v0,4(v0)
a08026cc:	1462000b 	bne	v1,v0,a08026fc <palloc+0x5c>
a08026d0:	00000000 	nop
a08026d4:	3c02a080 	lui	v0,0xa080
a08026d8:	2442682c 	addiu	v0,v0,26668
a08026dc:	ac400004 	sw	zero,4(v0)
a08026e0:	3c02a080 	lui	v0,0xa080
a08026e4:	2442682c 	addiu	v0,v0,26668
a08026e8:	8c430004 	lw	v1,4(v0)
a08026ec:	3c02a080 	lui	v0,0xa080
a08026f0:	ac43682c 	sw	v1,26668(v0)
a08026f4:	082009c6 	j	a0802718 <palloc+0x78>
a08026f8:	00000000 	nop
a08026fc:	8fc20000 	lw	v0,0(s8)
a0802700:	8c430014 	lw	v1,20(v0)
a0802704:	3c02a080 	lui	v0,0xa080
a0802708:	ac43682c 	sw	v1,26668(v0)
a080270c:	8fc20000 	lw	v0,0(s8)
a0802710:	8c420014 	lw	v0,20(v0)
a0802714:	ac400010 	sw	zero,16(v0)
a0802718:	3c02a080 	lui	v0,0xa080
a080271c:	8c42683c 	lw	v0,26684(v0)
a0802720:	14400010 	bnez	v0,a0802764 <palloc+0xc4>
a0802724:	00000000 	nop
a0802728:	3c03a080 	lui	v1,0xa080
a080272c:	8fc20000 	lw	v0,0(s8)
a0802730:	ac62683c 	sw	v0,26684(v1)
a0802734:	3c02a080 	lui	v0,0xa080
a0802738:	2443683c 	addiu	v1,v0,26684
a080273c:	8fc20000 	lw	v0,0(s8)
a0802740:	ac620004 	sw	v0,4(v1)
a0802744:	8fc20000 	lw	v0,0(s8)
a0802748:	ac400010 	sw	zero,16(v0)
a080274c:	8fc20000 	lw	v0,0(s8)
a0802750:	8c430010 	lw	v1,16(v0)
a0802754:	8fc20000 	lw	v0,0(s8)
a0802758:	ac430014 	sw	v1,20(v0)
a080275c:	082009eb 	j	a08027ac <palloc+0x10c>
a0802760:	00000000 	nop
a0802764:	3c02a080 	lui	v0,0xa080
a0802768:	2442683c 	addiu	v0,v0,26684
a080276c:	8c420004 	lw	v0,4(v0)
a0802770:	00401821 	move	v1,v0
a0802774:	8fc20000 	lw	v0,0(s8)
a0802778:	ac620014 	sw	v0,20(v1)
a080277c:	8fc20000 	lw	v0,0(s8)
a0802780:	ac400014 	sw	zero,20(v0)
a0802784:	3c02a080 	lui	v0,0xa080
a0802788:	2442683c 	addiu	v0,v0,26684
a080278c:	8c420004 	lw	v0,4(v0)
a0802790:	00401821 	move	v1,v0
a0802794:	8fc20000 	lw	v0,0(s8)
a0802798:	ac430010 	sw	v1,16(v0)
a080279c:	3c02a080 	lui	v0,0xa080
a08027a0:	2443683c 	addiu	v1,v0,26684
a08027a4:	8fc20000 	lw	v0,0(s8)
a08027a8:	ac620004 	sw	v0,4(v1)
a08027ac:	8fc20000 	lw	v0,0(s8)
a08027b0:	03c0e821 	move	sp,s8
a08027b4:	8fbe000c 	lw	s8,12(sp)
a08027b8:	27bd0010 	addiu	sp,sp,16
a08027bc:	03e00008 	jr	ra
a08027c0:	00000000 	nop

a08027c4 <pfree>:
a08027c4:	27bdffe0 	addiu	sp,sp,-32
a08027c8:	afbf001c 	sw	ra,28(sp)
a08027cc:	afbe0018 	sw	s8,24(sp)
a08027d0:	03a0f021 	move	s8,sp
a08027d4:	afc40020 	sw	a0,32(s8)
a08027d8:	8fc20020 	lw	v0,32(s8)
a08027dc:	8c420010 	lw	v0,16(v0)
a08027e0:	10400042 	beqz	v0,a08028ec <pfree+0x128>
a08027e4:	00000000 	nop
a08027e8:	8fc20020 	lw	v0,32(s8)
a08027ec:	8c420014 	lw	v0,20(v0)
a08027f0:	1040003e 	beqz	v0,a08028ec <pfree+0x128>
a08027f4:	00000000 	nop
a08027f8:	8fc20020 	lw	v0,32(s8)
a08027fc:	afc20010 	sw	v0,16(s8)
a0802800:	3c02a080 	lui	v0,0xa080
a0802804:	8c43683c 	lw	v1,26684(v0)
a0802808:	8fc20010 	lw	v0,16(s8)
a080280c:	1462000e 	bne	v1,v0,a0802848 <pfree+0x84>
a0802810:	00000000 	nop
a0802814:	3c02a080 	lui	v0,0xa080
a0802818:	2442683c 	addiu	v0,v0,26684
a080281c:	8c430004 	lw	v1,4(v0)
a0802820:	8fc20010 	lw	v0,16(s8)
a0802824:	14620008 	bne	v1,v0,a0802848 <pfree+0x84>
a0802828:	00000000 	nop
a080282c:	3c02a080 	lui	v0,0xa080
a0802830:	ac40683c 	sw	zero,26684(v0)
a0802834:	3c02a080 	lui	v0,0xa080
a0802838:	2442683c 	addiu	v0,v0,26684
a080283c:	ac400004 	sw	zero,4(v0)
a0802840:	08200a3b 	j	a08028ec <pfree+0x128>
a0802844:	00000000 	nop
a0802848:	3c02a080 	lui	v0,0xa080
a080284c:	8c43683c 	lw	v1,26684(v0)
a0802850:	8fc20010 	lw	v0,16(s8)
a0802854:	1462000a 	bne	v1,v0,a0802880 <pfree+0xbc>
a0802858:	00000000 	nop
a080285c:	8fc20020 	lw	v0,32(s8)
a0802860:	8c430014 	lw	v1,20(v0)
a0802864:	3c02a080 	lui	v0,0xa080
a0802868:	ac43683c 	sw	v1,26684(v0)
a080286c:	3c02a080 	lui	v0,0xa080
a0802870:	8c42683c 	lw	v0,26684(v0)
a0802874:	ac400010 	sw	zero,16(v0)
a0802878:	08200a3b 	j	a08028ec <pfree+0x128>
a080287c:	00000000 	nop
a0802880:	3c02a080 	lui	v0,0xa080
a0802884:	2442683c 	addiu	v0,v0,26684
a0802888:	8c430004 	lw	v1,4(v0)
a080288c:	8fc20010 	lw	v0,16(s8)
a0802890:	1462000c 	bne	v1,v0,a08028c4 <pfree+0x100>
a0802894:	00000000 	nop
a0802898:	8fc20020 	lw	v0,32(s8)
a080289c:	8c430010 	lw	v1,16(v0)
a08028a0:	3c02a080 	lui	v0,0xa080
a08028a4:	2442683c 	addiu	v0,v0,26684
a08028a8:	ac430004 	sw	v1,4(v0)
a08028ac:	3c02a080 	lui	v0,0xa080
a08028b0:	2442683c 	addiu	v0,v0,26684
a08028b4:	8c420004 	lw	v0,4(v0)
a08028b8:	ac400014 	sw	zero,20(v0)
a08028bc:	08200a3b 	j	a08028ec <pfree+0x128>
a08028c0:	00000000 	nop
a08028c4:	8fc20020 	lw	v0,32(s8)
a08028c8:	8c430010 	lw	v1,16(v0)
a08028cc:	8fc20020 	lw	v0,32(s8)
a08028d0:	8c420014 	lw	v0,20(v0)
a08028d4:	ac620014 	sw	v0,20(v1)
a08028d8:	8fc20020 	lw	v0,32(s8)
a08028dc:	8c430014 	lw	v1,20(v0)
a08028e0:	8fc20020 	lw	v0,32(s8)
a08028e4:	8c420010 	lw	v0,16(v0)
a08028e8:	ac620010 	sw	v0,16(v1)
a08028ec:	3c02a080 	lui	v0,0xa080
a08028f0:	2444682c 	addiu	a0,v0,26668
a08028f4:	8fc50020 	lw	a1,32(s8)
a08028f8:	0c200f92 	jal	a0803e48 <queue_push>
a08028fc:	00000000 	nop
a0802900:	03c0e821 	move	sp,s8
a0802904:	8fbf001c 	lw	ra,28(sp)
a0802908:	8fbe0018 	lw	s8,24(sp)
a080290c:	27bd0020 	addiu	sp,sp,32
a0802910:	03e00008 	jr	ra
a0802914:	00000000 	nop

a0802918 <free_pgframe>:
a0802918:	27bdffe0 	addiu	sp,sp,-32
a080291c:	afbf001c 	sw	ra,28(sp)
a0802920:	afbe0018 	sw	s8,24(sp)
a0802924:	03a0f021 	move	s8,sp
a0802928:	afc40020 	sw	a0,32(s8)
a080292c:	afc50024 	sw	a1,36(s8)
a0802930:	afc00010 	sw	zero,16(s8)
a0802934:	8fc20020 	lw	v0,32(s8)
a0802938:	afc20014 	sw	v0,20(s8)
a080293c:	08200a8e 	j	a0802a38 <free_pgframe+0x120>
a0802940:	00000000 	nop
a0802944:	8fc20010 	lw	v0,16(s8)
a0802948:	3c04a080 	lui	a0,0xa080
a080294c:	000218c0 	sll	v1,v0,0x3
a0802950:	00031080 	sll	v0,v1,0x2
a0802954:	00431023 	subu	v0,v0,v1
a0802958:	24837c20 	addiu	v1,a0,31776
a080295c:	00431821 	addu	v1,v0,v1
a0802960:	8fc20014 	lw	v0,20(s8)
a0802964:	ac620000 	sw	v0,0(v1)
a0802968:	8fc30010 	lw	v1,16(s8)
a080296c:	3c04a080 	lui	a0,0xa080
a0802970:	00601021 	move	v0,v1
a0802974:	00021040 	sll	v0,v0,0x1
a0802978:	00431021 	addu	v0,v0,v1
a080297c:	24420001 	addiu	v0,v0,1
a0802980:	000218c0 	sll	v1,v0,0x3
a0802984:	24827c20 	addiu	v0,a0,31776
a0802988:	00621021 	addu	v0,v1,v0
a080298c:	ac400000 	sw	zero,0(v0)
a0802990:	8fc60010 	lw	a2,16(s8)
a0802994:	8fc50010 	lw	a1,16(s8)
a0802998:	3c02a080 	lui	v0,0xa080
a080299c:	24447c20 	addiu	a0,v0,31776
a08029a0:	00a01021 	move	v0,a1
a08029a4:	000218c0 	sll	v1,v0,0x3
a08029a8:	00031080 	sll	v0,v1,0x2
a08029ac:	00431023 	subu	v0,v0,v1
a08029b0:	00821021 	addu	v0,a0,v0
a08029b4:	ac400014 	sw	zero,20(v0)
a08029b8:	3c02a080 	lui	v0,0xa080
a08029bc:	24447c20 	addiu	a0,v0,31776
a08029c0:	00a01021 	move	v0,a1
a08029c4:	000218c0 	sll	v1,v0,0x3
a08029c8:	00031080 	sll	v0,v1,0x2
a08029cc:	00431023 	subu	v0,v0,v1
a08029d0:	00821021 	addu	v0,a0,v0
a08029d4:	8c450014 	lw	a1,20(v0)
a08029d8:	3c04a080 	lui	a0,0xa080
a08029dc:	00c01021 	move	v0,a2
a08029e0:	000218c0 	sll	v1,v0,0x3
a08029e4:	00031080 	sll	v0,v1,0x2
a08029e8:	00431023 	subu	v0,v0,v1
a08029ec:	24837c20 	addiu	v1,a0,31776
a08029f0:	00431021 	addu	v0,v0,v1
a08029f4:	ac450010 	sw	a1,16(v0)
a08029f8:	8fc20010 	lw	v0,16(s8)
a08029fc:	000218c0 	sll	v1,v0,0x3
a0802a00:	00031080 	sll	v0,v1,0x2
a0802a04:	00431823 	subu	v1,v0,v1
a0802a08:	3c02a080 	lui	v0,0xa080
a0802a0c:	24427c20 	addiu	v0,v0,31776
a0802a10:	00621021 	addu	v0,v1,v0
a0802a14:	00402021 	move	a0,v0
a0802a18:	0c2009f1 	jal	a08027c4 <pfree>
a0802a1c:	00000000 	nop
a0802a20:	8fc20014 	lw	v0,20(s8)
a0802a24:	24421000 	addiu	v0,v0,4096
a0802a28:	afc20014 	sw	v0,20(s8)
a0802a2c:	8fc20010 	lw	v0,16(s8)
a0802a30:	24420001 	addiu	v0,v0,1
a0802a34:	afc20010 	sw	v0,16(s8)
a0802a38:	8fc20014 	lw	v0,20(s8)
a0802a3c:	24431000 	addiu	v1,v0,4096
a0802a40:	8fc20024 	lw	v0,36(s8)
a0802a44:	0043102b 	sltu	v0,v0,v1
a0802a48:	1040ffbe 	beqz	v0,a0802944 <free_pgframe+0x2c>
a0802a4c:	00000000 	nop
a0802a50:	03c0e821 	move	sp,s8
a0802a54:	8fbf001c 	lw	ra,28(sp)
a0802a58:	8fbe0018 	lw	s8,24(sp)
a0802a5c:	27bd0020 	addiu	sp,sp,32
a0802a60:	03e00008 	jr	ra
a0802a64:	00000000 	nop

a0802a68 <do_TLB_Helper>:
a0802a68:	27bdffd0 	addiu	sp,sp,-48
a0802a6c:	afbf002c 	sw	ra,44(sp)
a0802a70:	afbe0028 	sw	s8,40(sp)
a0802a74:	0c2000d3 	jal	a080034c <get_cp0_entryhi>
a0802a78:	03a0f021 	move	s8,sp
a0802a7c:	0c2000d7 	jal	a080035c <get_cp0_context>
a0802a80:	afc20024 	sw	v0,36(s8)
a0802a84:	afc20020 	sw	v0,32(s8)
a0802a88:	8fc20020 	lw	v0,32(s8)
a0802a8c:	00021240 	sll	v0,v0,0x9
a0802a90:	afc20020 	sw	v0,32(s8)
a0802a94:	8fc20024 	lw	v0,36(s8)
a0802a98:	304300ff 	andi	v1,v0,0xff
a0802a9c:	8fc20020 	lw	v0,32(s8)
a0802aa0:	00621025 	or	v0,v1,v0
a0802aa4:	0c2000db 	jal	a080036c <set_cp0_entryhi>
a0802aa8:	00402021 	move	a0,v0
a0802aac:	0c2000ef 	jal	a08003bc <get_cp0_index>
a0802ab0:	42000008 	tlbp
a0802ab4:	afc2001c 	sw	v0,28(s8)
a0802ab8:	8fc2001c 	lw	v0,28(s8)
a0802abc:	0441001e 	bgez	v0,a0802b38 <do_TLB_Helper+0xd0>
a0802ac0:	00000000 	nop
a0802ac4:	0c2000db 	jal	a080036c <set_cp0_entryhi>
a0802ac8:	8fc40024 	lw	a0,36(s8)
a0802acc:	3c02a080 	lui	v0,0xa080
a0802ad0:	8c43684c 	lw	v1,26700(v0)
a0802ad4:	8fc20020 	lw	v0,32(s8)
a0802ad8:	00021302 	srl	v0,v0,0xc
a0802adc:	2442006c 	addiu	v0,v0,108
a0802ae0:	00021080 	sll	v0,v0,0x2
a0802ae4:	00621021 	addu	v0,v1,v0
a0802ae8:	8c420000 	lw	v0,0(v0)
a0802aec:	34420016 	ori	v0,v0,0x16
a0802af0:	afc20018 	sw	v0,24(s8)
a0802af4:	3c02a080 	lui	v0,0xa080
a0802af8:	8c43684c 	lw	v1,26700(v0)
a0802afc:	8fc20020 	lw	v0,32(s8)
a0802b00:	00021302 	srl	v0,v0,0xc
a0802b04:	34420001 	ori	v0,v0,0x1
a0802b08:	2442006c 	addiu	v0,v0,108
a0802b0c:	00021080 	sll	v0,v0,0x2
a0802b10:	00621021 	addu	v0,v1,v0
a0802b14:	8c420000 	lw	v0,0(v0)
a0802b18:	34420016 	ori	v0,v0,0x16
a0802b1c:	afc20014 	sw	v0,20(s8)
a0802b20:	0c2000e3 	jal	a080038c <set_cp0_entrylo0>
a0802b24:	8fc40018 	lw	a0,24(s8)
a0802b28:	0c2000eb 	jal	a08003ac <set_cp0_entrylo1>
a0802b2c:	8fc40014 	lw	a0,20(s8)
a0802b30:	08200b43 	j	a0802d0c <do_TLB_Helper+0x2a4>
a0802b34:	42000006 	tlbwr
a0802b38:	3c02a080 	lui	v0,0xa080
a0802b3c:	8c43684c 	lw	v1,26700(v0)
a0802b40:	8fc20020 	lw	v0,32(s8)
a0802b44:	00021302 	srl	v0,v0,0xc
a0802b48:	2442006c 	addiu	v0,v0,108
a0802b4c:	00021080 	sll	v0,v0,0x2
a0802b50:	00621021 	addu	v0,v1,v0
a0802b54:	8c420000 	lw	v0,0(v0)
a0802b58:	30420001 	andi	v0,v0,0x1
a0802b5c:	14400053 	bnez	v0,a0802cac <do_TLB_Helper+0x244>
a0802b60:	00000000 	nop
a0802b64:	3c02a080 	lui	v0,0xa080
a0802b68:	8c42682c 	lw	v0,26668(v0)
a0802b6c:	1040004f 	beqz	v0,a0802cac <do_TLB_Helper+0x244>
a0802b70:	00000000 	nop
a0802b74:	0c2009a8 	jal	a08026a0 <palloc>
a0802b78:	00000000 	nop
a0802b7c:	afc20010 	sw	v0,16(s8)
a0802b80:	3c02a080 	lui	v0,0xa080
a0802b84:	8c45684c 	lw	a1,26700(v0)
a0802b88:	8fc20020 	lw	v0,32(s8)
a0802b8c:	00022302 	srl	a0,v0,0xc
a0802b90:	8fc20010 	lw	v0,16(s8)
a0802b94:	8c430000 	lw	v1,0(v0)
a0802b98:	2402f000 	li	v0,-4096
a0802b9c:	00621024 	and	v0,v1,v0
a0802ba0:	00021182 	srl	v0,v0,0x6
a0802ba4:	34430016 	ori	v1,v0,0x16
a0802ba8:	2482006c 	addiu	v0,a0,108
a0802bac:	00021080 	sll	v0,v0,0x2
a0802bb0:	00a21021 	addu	v0,a1,v0
a0802bb4:	ac430000 	sw	v1,0(v0)
a0802bb8:	3c02a080 	lui	v0,0xa080
a0802bbc:	8c42684c 	lw	v0,26700(v0)
a0802bc0:	244301b0 	addiu	v1,v0,432
a0802bc4:	8fc20020 	lw	v0,32(s8)
a0802bc8:	00021302 	srl	v0,v0,0xc
a0802bcc:	00021080 	sll	v0,v0,0x2
a0802bd0:	00621821 	addu	v1,v1,v0
a0802bd4:	8fc20010 	lw	v0,16(s8)
a0802bd8:	ac430008 	sw	v1,8(v0)
a0802bdc:	3c02a080 	lui	v0,0xa080
a0802be0:	8c42684c 	lw	v0,26700(v0)
a0802be4:	8c420148 	lw	v0,328(v0)
a0802be8:	00021080 	sll	v0,v0,0x2
a0802bec:	00401821 	move	v1,v0
a0802bf0:	8fc20020 	lw	v0,32(s8)
a0802bf4:	00621825 	or	v1,v1,v0
a0802bf8:	8fc20010 	lw	v0,16(s8)
a0802bfc:	ac430004 	sw	v1,4(v0)
a0802c00:	8fc30010 	lw	v1,16(s8)
a0802c04:	24020001 	li	v0,1
a0802c08:	0c2009a8 	jal	a08026a0 <palloc>
a0802c0c:	a062000c 	sb	v0,12(v1)
a0802c10:	afc20010 	sw	v0,16(s8)
a0802c14:	3c02a080 	lui	v0,0xa080
a0802c18:	8c45684c 	lw	a1,26700(v0)
a0802c1c:	8fc20020 	lw	v0,32(s8)
a0802c20:	00021302 	srl	v0,v0,0xc
a0802c24:	34440001 	ori	a0,v0,0x1
a0802c28:	8fc20010 	lw	v0,16(s8)
a0802c2c:	8c430000 	lw	v1,0(v0)
a0802c30:	2402f000 	li	v0,-4096
a0802c34:	00621024 	and	v0,v1,v0
a0802c38:	00021182 	srl	v0,v0,0x6
a0802c3c:	34430016 	ori	v1,v0,0x16
a0802c40:	2482006c 	addiu	v0,a0,108
a0802c44:	00021080 	sll	v0,v0,0x2
a0802c48:	00a21021 	addu	v0,a1,v0
a0802c4c:	ac430000 	sw	v1,0(v0)
a0802c50:	3c02a080 	lui	v0,0xa080
a0802c54:	8c42684c 	lw	v0,26700(v0)
a0802c58:	244301b0 	addiu	v1,v0,432
a0802c5c:	8fc20020 	lw	v0,32(s8)
a0802c60:	00021302 	srl	v0,v0,0xc
a0802c64:	34420001 	ori	v0,v0,0x1
a0802c68:	00021080 	sll	v0,v0,0x2
a0802c6c:	00621821 	addu	v1,v1,v0
a0802c70:	8fc20010 	lw	v0,16(s8)
a0802c74:	ac430008 	sw	v1,8(v0)
a0802c78:	3c02a080 	lui	v0,0xa080
a0802c7c:	8c42684c 	lw	v0,26700(v0)
a0802c80:	8c420148 	lw	v0,328(v0)
a0802c84:	00021080 	sll	v0,v0,0x2
a0802c88:	00401821 	move	v1,v0
a0802c8c:	8fc20020 	lw	v0,32(s8)
a0802c90:	00621025 	or	v0,v1,v0
a0802c94:	34431000 	ori	v1,v0,0x1000
a0802c98:	8fc20010 	lw	v0,16(s8)
a0802c9c:	ac430004 	sw	v1,4(v0)
a0802ca0:	8fc30010 	lw	v1,16(s8)
a0802ca4:	24020001 	li	v0,1
a0802ca8:	a062000c 	sb	v0,12(v1)
a0802cac:	3c02a080 	lui	v0,0xa080
a0802cb0:	8c43684c 	lw	v1,26700(v0)
a0802cb4:	8fc20020 	lw	v0,32(s8)
a0802cb8:	00021302 	srl	v0,v0,0xc
a0802cbc:	2442006c 	addiu	v0,v0,108
a0802cc0:	00021080 	sll	v0,v0,0x2
a0802cc4:	00621021 	addu	v0,v1,v0
a0802cc8:	8c420000 	lw	v0,0(v0)
a0802ccc:	afc20018 	sw	v0,24(s8)
a0802cd0:	3c02a080 	lui	v0,0xa080
a0802cd4:	8c43684c 	lw	v1,26700(v0)
a0802cd8:	8fc20020 	lw	v0,32(s8)
a0802cdc:	00021302 	srl	v0,v0,0xc
a0802ce0:	34420001 	ori	v0,v0,0x1
a0802ce4:	2442006c 	addiu	v0,v0,108
a0802ce8:	00021080 	sll	v0,v0,0x2
a0802cec:	00621021 	addu	v0,v1,v0
a0802cf0:	8c420000 	lw	v0,0(v0)
a0802cf4:	afc20014 	sw	v0,20(s8)
a0802cf8:	0c2000e3 	jal	a080038c <set_cp0_entrylo0>
a0802cfc:	8fc40018 	lw	a0,24(s8)
a0802d00:	0c2000eb 	jal	a08003ac <set_cp0_entrylo1>
a0802d04:	8fc40014 	lw	a0,20(s8)
a0802d08:	42000002 	tlbwi
a0802d0c:	03c0e821 	move	sp,s8
a0802d10:	8fbf002c 	lw	ra,44(sp)
a0802d14:	8fbe0028 	lw	s8,40(sp)
a0802d18:	03e00008 	jr	ra
a0802d1c:	27bd0030 	addiu	sp,sp,48

a0802d20 <check_sleeping>:
a0802d20:	27bdffd8 	addiu	sp,sp,-40
a0802d24:	afbf0024 	sw	ra,36(sp)
a0802d28:	afbe0020 	sw	s8,32(sp)
a0802d2c:	03a0f021 	move	s8,sp
a0802d30:	3c02a080 	lui	v0,0xa080
a0802d34:	8c426834 	lw	v0,26676(v0)
a0802d38:	afc20018 	sw	v0,24(s8)
a0802d3c:	08200b7b 	j	a0802dec <check_sleeping+0xcc>
a0802d40:	00000000 	nop
a0802d44:	0c201062 	jal	a0804188 <get_timer>
a0802d48:	00000000 	nop
a0802d4c:	afc20010 	sw	v0,16(s8)
a0802d50:	8fc20018 	lw	v0,24(s8)
a0802d54:	8c420164 	lw	v0,356(v0)
a0802d58:	00401821 	move	v1,v0
a0802d5c:	8fc20010 	lw	v0,16(s8)
a0802d60:	00431823 	subu	v1,v0,v1
a0802d64:	8fc20018 	lw	v0,24(s8)
a0802d68:	8c420168 	lw	v0,360(v0)
a0802d6c:	0062102b 	sltu	v0,v1,v0
a0802d70:	1440001b 	bnez	v0,a0802de0 <check_sleeping+0xc0>
a0802d74:	00000000 	nop
a0802d78:	8fc20018 	lw	v0,24(s8)
a0802d7c:	ac400168 	sw	zero,360(v0)
a0802d80:	8fc30018 	lw	v1,24(s8)
a0802d84:	24020002 	li	v0,2
a0802d88:	ac620150 	sw	v0,336(v1)
a0802d8c:	3c02a080 	lui	v0,0xa080
a0802d90:	24446834 	addiu	a0,v0,26676
a0802d94:	8fc50018 	lw	a1,24(s8)
a0802d98:	0c20100b 	jal	a080402c <queue_remove>
a0802d9c:	00000000 	nop
a0802da0:	afc20014 	sw	v0,20(s8)
a0802da4:	3c02a080 	lui	v0,0xa080
a0802da8:	24446820 	addiu	a0,v0,26656
a0802dac:	8fc50018 	lw	a1,24(s8)
a0802db0:	0c200fbc 	jal	a0803ef0 <priority_queue_push>
a0802db4:	00000000 	nop
a0802db8:	8fc30018 	lw	v1,24(s8)
a0802dbc:	3c020002 	lui	v0,0x2
a0802dc0:	00621821 	addu	v1,v1,v0
a0802dc4:	3c02a080 	lui	v0,0xa080
a0802dc8:	24426820 	addiu	v0,v0,26656
a0802dcc:	ac6201b0 	sw	v0,432(v1)
a0802dd0:	8fc20014 	lw	v0,20(s8)
a0802dd4:	afc20018 	sw	v0,24(s8)
a0802dd8:	08200b7b 	j	a0802dec <check_sleeping+0xcc>
a0802ddc:	00000000 	nop
a0802de0:	8fc20018 	lw	v0,24(s8)
a0802de4:	8c420144 	lw	v0,324(v0)
a0802de8:	afc20018 	sw	v0,24(s8)
a0802dec:	8fc20018 	lw	v0,24(s8)
a0802df0:	1440ffd4 	bnez	v0,a0802d44 <check_sleeping+0x24>
a0802df4:	00000000 	nop
a0802df8:	03c0e821 	move	sp,s8
a0802dfc:	8fbf0024 	lw	ra,36(sp)
a0802e00:	8fbe0020 	lw	s8,32(sp)
a0802e04:	27bd0028 	addiu	sp,sp,40
a0802e08:	03e00008 	jr	ra
a0802e0c:	00000000 	nop

a0802e10 <scheduler>:
a0802e10:	27bdffd8 	addiu	sp,sp,-40
a0802e14:	afbf0024 	sw	ra,36(sp)
a0802e18:	afbe0020 	sw	s8,32(sp)
a0802e1c:	03a0f021 	move	s8,sp
a0802e20:	0c200b48 	jal	a0802d20 <check_sleeping>
a0802e24:	00000000 	nop
a0802e28:	3c02a080 	lui	v0,0xa080
a0802e2c:	8c43684c 	lw	v1,26700(v0)
a0802e30:	3c02a080 	lui	v0,0xa080
a0802e34:	8c426810 	lw	v0,26640(v0)
a0802e38:	ac620154 	sw	v0,340(v1)
a0802e3c:	3c02a080 	lui	v0,0xa080
a0802e40:	8c43684c 	lw	v1,26700(v0)
a0802e44:	3c02a080 	lui	v0,0xa080
a0802e48:	8c426814 	lw	v0,26644(v0)
a0802e4c:	ac620158 	sw	v0,344(v1)
a0802e50:	3c02a080 	lui	v0,0xa080
a0802e54:	24446820 	addiu	a0,v0,26656
a0802e58:	0c200f7f 	jal	a0803dfc <queue_is_empty>
a0802e5c:	00000000 	nop
a0802e60:	14400008 	bnez	v0,a0802e84 <scheduler+0x74>
a0802e64:	00000000 	nop
a0802e68:	3c02a080 	lui	v0,0xa080
a0802e6c:	24446820 	addiu	a0,v0,26656
a0802e70:	0c200fe6 	jal	a0803f98 <queue_dequeue>
a0802e74:	00000000 	nop
a0802e78:	afc20018 	sw	v0,24(s8)
a0802e7c:	08200ba4 	j	a0802e90 <scheduler+0x80>
a0802e80:	00000000 	nop
a0802e84:	3c02a080 	lui	v0,0xa080
a0802e88:	8c42684c 	lw	v0,26700(v0)
a0802e8c:	afc20018 	sw	v0,24(s8)
a0802e90:	8fc20018 	lw	v0,24(s8)
a0802e94:	afc20010 	sw	v0,16(s8)
a0802e98:	3c02a080 	lui	v0,0xa080
a0802e9c:	8c42684c 	lw	v0,26700(v0)
a0802ea0:	8c420150 	lw	v0,336(v0)
a0802ea4:	10400023 	beqz	v0,a0802f34 <scheduler+0x124>
a0802ea8:	00000000 	nop
a0802eac:	3c02a080 	lui	v0,0xa080
a0802eb0:	8c42684c 	lw	v0,26700(v0)
a0802eb4:	8c430150 	lw	v1,336(v0)
a0802eb8:	24020003 	li	v0,3
a0802ebc:	1062001d 	beq	v1,v0,a0802f34 <scheduler+0x124>
a0802ec0:	00000000 	nop
a0802ec4:	3c02a080 	lui	v0,0xa080
a0802ec8:	8c43684c 	lw	v1,26700(v0)
a0802ecc:	8fc20010 	lw	v0,16(s8)
a0802ed0:	10430018 	beq	v0,v1,a0802f34 <scheduler+0x124>
a0802ed4:	00000000 	nop
a0802ed8:	3c02a080 	lui	v0,0xa080
a0802edc:	8c43684c 	lw	v1,26700(v0)
a0802ee0:	24020002 	li	v0,2
a0802ee4:	ac620150 	sw	v0,336(v1)
a0802ee8:	3c02a080 	lui	v0,0xa080
a0802eec:	8c42684c 	lw	v0,26700(v0)
a0802ef0:	8c420148 	lw	v0,328(v0)
a0802ef4:	1040000f 	beqz	v0,a0802f34 <scheduler+0x124>
a0802ef8:	00000000 	nop
a0802efc:	3c02a080 	lui	v0,0xa080
a0802f00:	8c43684c 	lw	v1,26700(v0)
a0802f04:	3c02a080 	lui	v0,0xa080
a0802f08:	24446820 	addiu	a0,v0,26656
a0802f0c:	00602821 	move	a1,v1
a0802f10:	0c200fbc 	jal	a0803ef0 <priority_queue_push>
a0802f14:	00000000 	nop
a0802f18:	3c02a080 	lui	v0,0xa080
a0802f1c:	8c43684c 	lw	v1,26700(v0)
a0802f20:	3c020002 	lui	v0,0x2
a0802f24:	00621821 	addu	v1,v1,v0
a0802f28:	3c02a080 	lui	v0,0xa080
a0802f2c:	24426820 	addiu	v0,v0,26656
a0802f30:	ac6201b0 	sw	v0,432(v1)
a0802f34:	3c03a080 	lui	v1,0xa080
a0802f38:	8fc20010 	lw	v0,16(s8)
a0802f3c:	ac62684c 	sw	v0,26700(v1)
a0802f40:	3c02a080 	lui	v0,0xa080
a0802f44:	8c43684c 	lw	v1,26700(v0)
a0802f48:	3c02a080 	lui	v0,0xa080
a0802f4c:	8c42684c 	lw	v0,26700(v0)
a0802f50:	8c420160 	lw	v0,352(v0)
a0802f54:	ac62015c 	sw	v0,348(v1)
a0802f58:	3c02a080 	lui	v0,0xa080
a0802f5c:	8c43684c 	lw	v1,26700(v0)
a0802f60:	24020001 	li	v0,1
a0802f64:	ac620150 	sw	v0,336(v1)
a0802f68:	3c02a080 	lui	v0,0xa080
a0802f6c:	8c43684c 	lw	v1,26700(v0)
a0802f70:	3c020002 	lui	v0,0x2
a0802f74:	00621021 	addu	v0,v1,v0
a0802f78:	ac4001b0 	sw	zero,432(v0)
a0802f7c:	3c02a080 	lui	v0,0xa080
a0802f80:	8c42684c 	lw	v0,26700(v0)
a0802f84:	8c430154 	lw	v1,340(v0)
a0802f88:	3c02a080 	lui	v0,0xa080
a0802f8c:	ac436810 	sw	v1,26640(v0)
a0802f90:	3c02a080 	lui	v0,0xa080
a0802f94:	8c42684c 	lw	v0,26700(v0)
a0802f98:	8c430158 	lw	v1,344(v0)
a0802f9c:	3c02a080 	lui	v0,0xa080
a0802fa0:	ac436814 	sw	v1,26644(v0)
a0802fa4:	3c02a080 	lui	v0,0xa080
a0802fa8:	8c426820 	lw	v0,26656(v0)
a0802fac:	afc20014 	sw	v0,20(s8)
a0802fb0:	08200bf6 	j	a0802fd8 <scheduler+0x1c8>
a0802fb4:	00000000 	nop
a0802fb8:	8fc20014 	lw	v0,20(s8)
a0802fbc:	8c42015c 	lw	v0,348(v0)
a0802fc0:	24430001 	addiu	v1,v0,1
a0802fc4:	8fc20014 	lw	v0,20(s8)
a0802fc8:	ac43015c 	sw	v1,348(v0)
a0802fcc:	8fc20014 	lw	v0,20(s8)
a0802fd0:	8c420144 	lw	v0,324(v0)
a0802fd4:	afc20014 	sw	v0,20(s8)
a0802fd8:	8fc20014 	lw	v0,20(s8)
a0802fdc:	1440fff6 	bnez	v0,a0802fb8 <scheduler+0x1a8>
a0802fe0:	00000000 	nop
a0802fe4:	03c0e821 	move	sp,s8
a0802fe8:	8fbf0024 	lw	ra,36(sp)
a0802fec:	8fbe0020 	lw	s8,32(sp)
a0802ff0:	27bd0028 	addiu	sp,sp,40
a0802ff4:	03e00008 	jr	ra
a0802ff8:	00000000 	nop

a0802ffc <do_sleep>:
a0802ffc:	27bdffe0 	addiu	sp,sp,-32
a0803000:	afbf001c 	sw	ra,28(sp)
a0803004:	afbe0018 	sw	s8,24(sp)
a0803008:	afb00014 	sw	s0,20(sp)
a080300c:	03a0f021 	move	s8,sp
a0803010:	afc40020 	sw	a0,32(s8)
a0803014:	3c02a080 	lui	v0,0xa080
a0803018:	8c50684c 	lw	s0,26700(v0)
a080301c:	0c201062 	jal	a0804188 <get_timer>
a0803020:	00000000 	nop
a0803024:	ae020164 	sw	v0,356(s0)
a0803028:	3c02a080 	lui	v0,0xa080
a080302c:	8c43684c 	lw	v1,26700(v0)
a0803030:	8fc20020 	lw	v0,32(s8)
a0803034:	ac620168 	sw	v0,360(v1)
a0803038:	3c02a080 	lui	v0,0xa080
a080303c:	8c42684c 	lw	v0,26700(v0)
a0803040:	ac400150 	sw	zero,336(v0)
a0803044:	3c02a080 	lui	v0,0xa080
a0803048:	8c43684c 	lw	v1,26700(v0)
a080304c:	3c02a080 	lui	v0,0xa080
a0803050:	24446834 	addiu	a0,v0,26676
a0803054:	00602821 	move	a1,v1
a0803058:	0c200f92 	jal	a0803e48 <queue_push>
a080305c:	00000000 	nop
a0803060:	3c02a080 	lui	v0,0xa080
a0803064:	8c43684c 	lw	v1,26700(v0)
a0803068:	3c020002 	lui	v0,0x2
a080306c:	00621821 	addu	v1,v1,v0
a0803070:	3c02a080 	lui	v0,0xa080
a0803074:	24426834 	addiu	v0,v0,26676
a0803078:	ac6201b0 	sw	v0,432(v1)
a080307c:	0c20015e 	jal	a0800578 <do_scheduler>
a0803080:	00000000 	nop
a0803084:	03c0e821 	move	sp,s8
a0803088:	8fbf001c 	lw	ra,28(sp)
a080308c:	8fbe0018 	lw	s8,24(sp)
a0803090:	8fb00014 	lw	s0,20(sp)
a0803094:	27bd0020 	addiu	sp,sp,32
a0803098:	03e00008 	jr	ra
a080309c:	00000000 	nop

a08030a0 <do_block>:
a08030a0:	27bdffe8 	addiu	sp,sp,-24
a08030a4:	afbf0014 	sw	ra,20(sp)
a08030a8:	afbe0010 	sw	s8,16(sp)
a08030ac:	03a0f021 	move	s8,sp
a08030b0:	afc40018 	sw	a0,24(s8)
a08030b4:	3c02a080 	lui	v0,0xa080
a08030b8:	8c42684c 	lw	v0,26700(v0)
a08030bc:	ac400150 	sw	zero,336(v0)
a08030c0:	3c02a080 	lui	v0,0xa080
a08030c4:	8c43684c 	lw	v1,26700(v0)
a08030c8:	3c020002 	lui	v0,0x2
a08030cc:	00621821 	addu	v1,v1,v0
a08030d0:	8fc20018 	lw	v0,24(s8)
a08030d4:	ac6201b0 	sw	v0,432(v1)
a08030d8:	3c02a080 	lui	v0,0xa080
a08030dc:	8c42684c 	lw	v0,26700(v0)
a08030e0:	8fc40018 	lw	a0,24(s8)
a08030e4:	00402821 	move	a1,v0
a08030e8:	0c200f92 	jal	a0803e48 <queue_push>
a08030ec:	00000000 	nop
a08030f0:	03c0e821 	move	sp,s8
a08030f4:	8fbf0014 	lw	ra,20(sp)
a08030f8:	8fbe0010 	lw	s8,16(sp)
a08030fc:	27bd0018 	addiu	sp,sp,24
a0803100:	03e00008 	jr	ra
a0803104:	00000000 	nop

a0803108 <do_unblock_one>:
a0803108:	27bdffe0 	addiu	sp,sp,-32
a080310c:	afbf001c 	sw	ra,28(sp)
a0803110:	afbe0018 	sw	s8,24(sp)
a0803114:	03a0f021 	move	s8,sp
a0803118:	afc40020 	sw	a0,32(s8)
a080311c:	8fc20020 	lw	v0,32(s8)
a0803120:	8c420000 	lw	v0,0(v0)
a0803124:	afc20014 	sw	v0,20(s8)
a0803128:	08200c54 	j	a0803150 <do_unblock_one+0x48>
a080312c:	00000000 	nop
a0803130:	8fc20014 	lw	v0,20(s8)
a0803134:	8c42015c 	lw	v0,348(v0)
a0803138:	24430001 	addiu	v1,v0,1
a080313c:	8fc20014 	lw	v0,20(s8)
a0803140:	ac43015c 	sw	v1,348(v0)
a0803144:	8fc20014 	lw	v0,20(s8)
a0803148:	8c420144 	lw	v0,324(v0)
a080314c:	afc20014 	sw	v0,20(s8)
a0803150:	8fc20014 	lw	v0,20(s8)
a0803154:	1440fff6 	bnez	v0,a0803130 <do_unblock_one+0x28>
a0803158:	00000000 	nop
a080315c:	8fc40020 	lw	a0,32(s8)
a0803160:	0c200fe6 	jal	a0803f98 <queue_dequeue>
a0803164:	00000000 	nop
a0803168:	afc20010 	sw	v0,16(s8)
a080316c:	8fc30010 	lw	v1,16(s8)
a0803170:	24020002 	li	v0,2
a0803174:	ac620150 	sw	v0,336(v1)
a0803178:	8fc30010 	lw	v1,16(s8)
a080317c:	3c020002 	lui	v0,0x2
a0803180:	00621821 	addu	v1,v1,v0
a0803184:	3c02a080 	lui	v0,0xa080
a0803188:	24426820 	addiu	v0,v0,26656
a080318c:	ac6201b0 	sw	v0,432(v1)
a0803190:	3c02a080 	lui	v0,0xa080
a0803194:	24446820 	addiu	a0,v0,26656
a0803198:	8fc50010 	lw	a1,16(s8)
a080319c:	0c200fbc 	jal	a0803ef0 <priority_queue_push>
a08031a0:	00000000 	nop
a08031a4:	03c0e821 	move	sp,s8
a08031a8:	8fbf001c 	lw	ra,28(sp)
a08031ac:	8fbe0018 	lw	s8,24(sp)
a08031b0:	27bd0020 	addiu	sp,sp,32
a08031b4:	03e00008 	jr	ra
a08031b8:	00000000 	nop

a08031bc <do_unblock_all>:
a08031bc:	27bdffe0 	addiu	sp,sp,-32
a08031c0:	afbf001c 	sw	ra,28(sp)
a08031c4:	afbe0018 	sw	s8,24(sp)
a08031c8:	03a0f021 	move	s8,sp
a08031cc:	afc40020 	sw	a0,32(s8)
a08031d0:	08200c88 	j	a0803220 <do_unblock_all+0x64>
a08031d4:	00000000 	nop
a08031d8:	8fc40020 	lw	a0,32(s8)
a08031dc:	0c200fe6 	jal	a0803f98 <queue_dequeue>
a08031e0:	00000000 	nop
a08031e4:	afc20010 	sw	v0,16(s8)
a08031e8:	8fc30010 	lw	v1,16(s8)
a08031ec:	24020002 	li	v0,2
a08031f0:	ac620150 	sw	v0,336(v1)
a08031f4:	8fc30010 	lw	v1,16(s8)
a08031f8:	3c020002 	lui	v0,0x2
a08031fc:	00621821 	addu	v1,v1,v0
a0803200:	3c02a080 	lui	v0,0xa080
a0803204:	24426820 	addiu	v0,v0,26656
a0803208:	ac6201b0 	sw	v0,432(v1)
a080320c:	3c02a080 	lui	v0,0xa080
a0803210:	24446820 	addiu	a0,v0,26656
a0803214:	8fc50010 	lw	a1,16(s8)
a0803218:	0c200fbc 	jal	a0803ef0 <priority_queue_push>
a080321c:	00000000 	nop
a0803220:	8fc40020 	lw	a0,32(s8)
a0803224:	0c200f7f 	jal	a0803dfc <queue_is_empty>
a0803228:	00000000 	nop
a080322c:	1040ffea 	beqz	v0,a08031d8 <do_unblock_all+0x1c>
a0803230:	00000000 	nop
a0803234:	03c0e821 	move	sp,s8
a0803238:	8fbf001c 	lw	ra,28(sp)
a080323c:	8fbe0018 	lw	s8,24(sp)
a0803240:	27bd0020 	addiu	sp,sp,32
a0803244:	03e00008 	jr	ra
a0803248:	00000000 	nop

a080324c <get_stack>:
a080324c:	27bdfff0 	addiu	sp,sp,-16
a0803250:	afbe000c 	sw	s8,12(sp)
a0803254:	03a0f021 	move	s8,sp
a0803258:	3c02a080 	lui	v0,0xa080
a080325c:	8c4266c0 	lw	v0,26304(v0)
a0803260:	0440000e 	bltz	v0,a080329c <get_stack+0x50>
a0803264:	00000000 	nop
a0803268:	3c02a080 	lui	v0,0xa080
a080326c:	8c4466c0 	lw	a0,26304(v0)
a0803270:	3c02a083 	lui	v0,0xa083
a0803274:	00041880 	sll	v1,a0,0x2
a0803278:	24427c38 	addiu	v0,v0,31800
a080327c:	00621021 	addu	v0,v1,v0
a0803280:	8c420000 	lw	v0,0(v0)
a0803284:	afc20000 	sw	v0,0(s8)
a0803288:	2483ffff 	addiu	v1,a0,-1
a080328c:	3c02a080 	lui	v0,0xa080
a0803290:	ac4366c0 	sw	v1,26304(v0)
a0803294:	08200cb0 	j	a08032c0 <get_stack+0x74>
a0803298:	00000000 	nop
a080329c:	3c02a080 	lui	v0,0xa080
a08032a0:	8c4266c4 	lw	v0,26308(v0)
a08032a4:	afc20000 	sw	v0,0(s8)
a08032a8:	3c02a080 	lui	v0,0xa080
a08032ac:	8c4366c4 	lw	v1,26308(v0)
a08032b0:	3c02ffff 	lui	v0,0xffff
a08032b4:	00621821 	addu	v1,v1,v0
a08032b8:	3c02a080 	lui	v0,0xa080
a08032bc:	ac4366c4 	sw	v1,26308(v0)
a08032c0:	8fc20000 	lw	v0,0(s8)
a08032c4:	03c0e821 	move	sp,s8
a08032c8:	8fbe000c 	lw	s8,12(sp)
a08032cc:	27bd0010 	addiu	sp,sp,16
a08032d0:	03e00008 	jr	ra
a08032d4:	00000000 	nop

a08032d8 <get_usr_stack>:
a08032d8:	27bdfff0 	addiu	sp,sp,-16
a08032dc:	afbe000c 	sw	s8,12(sp)
a08032e0:	03a0f021 	move	s8,sp
a08032e4:	3c02a080 	lui	v0,0xa080
a08032e8:	8c4266c8 	lw	v0,26312(v0)
a08032ec:	afc20000 	sw	v0,0(s8)
a08032f0:	3c02a080 	lui	v0,0xa080
a08032f4:	8c4366c8 	lw	v1,26312(v0)
a08032f8:	3c02ffff 	lui	v0,0xffff
a08032fc:	00621821 	addu	v1,v1,v0
a0803300:	3c02a080 	lui	v0,0xa080
a0803304:	ac4366c8 	sw	v1,26312(v0)
a0803308:	8fc20000 	lw	v0,0(s8)
a080330c:	03c0e821 	move	sp,s8
a0803310:	8fbe000c 	lw	s8,12(sp)
a0803314:	27bd0010 	addiu	sp,sp,16
a0803318:	03e00008 	jr	ra
a080331c:	00000000 	nop

a0803320 <do_clear>:
a0803320:	27bdffe8 	addiu	sp,sp,-24
a0803324:	afbf0014 	sw	ra,20(sp)
a0803328:	afbe0010 	sw	s8,16(sp)
a080332c:	03a0f021 	move	s8,sp
a0803330:	00002021 	move	a0,zero
a0803334:	2405001e 	li	a1,30
a0803338:	0c2003e7 	jal	a0800f9c <screen_clear>
a080333c:	00000000 	nop
a0803340:	00002021 	move	a0,zero
a0803344:	2405000f 	li	a1,15
a0803348:	0c200422 	jal	a0801088 <screen_move_cursor>
a080334c:	00000000 	nop
a0803350:	3c02a080 	lui	v0,0xa080
a0803354:	244464e0 	addiu	a0,v0,25824
a0803358:	0c201601 	jal	a0805804 <do_print>
a080335c:	00000000 	nop
a0803360:	03c0e821 	move	sp,s8
a0803364:	8fbf0014 	lw	ra,20(sp)
a0803368:	8fbe0010 	lw	s8,16(sp)
a080336c:	27bd0018 	addiu	sp,sp,24
a0803370:	03e00008 	jr	ra
a0803374:	00000000 	nop

a0803378 <do_ps>:
a0803378:	27bdffd8 	addiu	sp,sp,-40
a080337c:	afbf0024 	sw	ra,36(sp)
a0803380:	afbe0020 	sw	s8,32(sp)
a0803384:	03a0f021 	move	s8,sp
a0803388:	3c02a080 	lui	v0,0xa080
a080338c:	8c426820 	lw	v0,26656(v0)
a0803390:	afc2001c 	sw	v0,28(s8)
a0803394:	3c02a080 	lui	v0,0xa080
a0803398:	24446514 	addiu	a0,v0,25876
a080339c:	0c201601 	jal	a0805804 <do_print>
a08033a0:	00000000 	nop
a08033a4:	afc00014 	sw	zero,20(s8)
a08033a8:	afc00010 	sw	zero,16(s8)
a08033ac:	afc00010 	sw	zero,16(s8)
a08033b0:	08200d75 	j	a08035d4 <do_ps+0x25c>
a08033b4:	00000000 	nop
a08033b8:	8fc40010 	lw	a0,16(s8)
a08033bc:	3c05a083 	lui	a1,0xa083
a08033c0:	00801021 	move	v0,a0
a08033c4:	000210c0 	sll	v0,v0,0x3
a08033c8:	00021a00 	sll	v1,v0,0x8
a08033cc:	00431021 	addu	v0,v0,v1
a08033d0:	00441023 	subu	v0,v0,a0
a08033d4:	00021100 	sll	v0,v0,0x4
a08033d8:	00441023 	subu	v0,v0,a0
a08033dc:	00021880 	sll	v1,v0,0x2
a08033e0:	24a27d58 	addiu	v0,a1,32088
a08033e4:	00621021 	addu	v0,v1,v0
a08033e8:	8c430150 	lw	v1,336(v0)
a08033ec:	24020001 	li	v0,1
a08033f0:	14620019 	bne	v1,v0,a0803458 <do_ps+0xe0>
a08033f4:	00000000 	nop
a08033f8:	8fc40010 	lw	a0,16(s8)
a08033fc:	3c05a083 	lui	a1,0xa083
a0803400:	00801021 	move	v0,a0
a0803404:	000210c0 	sll	v0,v0,0x3
a0803408:	00021a00 	sll	v1,v0,0x8
a080340c:	00431021 	addu	v0,v0,v1
a0803410:	00441023 	subu	v0,v0,a0
a0803414:	00021100 	sll	v0,v0,0x4
a0803418:	00441023 	subu	v0,v0,a0
a080341c:	00021880 	sll	v1,v0,0x2
a0803420:	24a27d58 	addiu	v0,a1,32088
a0803424:	00621021 	addu	v0,v1,v0
a0803428:	8c430148 	lw	v1,328(v0)
a080342c:	3c02a080 	lui	v0,0xa080
a0803430:	24446528 	addiu	a0,v0,25896
a0803434:	8fc50014 	lw	a1,20(s8)
a0803438:	00603021 	move	a2,v1
a080343c:	0c201601 	jal	a0805804 <do_print>
a0803440:	00000000 	nop
a0803444:	8fc20014 	lw	v0,20(s8)
a0803448:	24420001 	addiu	v0,v0,1
a080344c:	afc20014 	sw	v0,20(s8)
a0803450:	08200d72 	j	a08035c8 <do_ps+0x250>
a0803454:	00000000 	nop
a0803458:	8fc40010 	lw	a0,16(s8)
a080345c:	3c05a083 	lui	a1,0xa083
a0803460:	00801021 	move	v0,a0
a0803464:	000210c0 	sll	v0,v0,0x3
a0803468:	00021a00 	sll	v1,v0,0x8
a080346c:	00431021 	addu	v0,v0,v1
a0803470:	00441023 	subu	v0,v0,a0
a0803474:	00021100 	sll	v0,v0,0x4
a0803478:	00441023 	subu	v0,v0,a0
a080347c:	00021880 	sll	v1,v0,0x2
a0803480:	24a27d58 	addiu	v0,a1,32088
a0803484:	00621021 	addu	v0,v1,v0
a0803488:	8c420150 	lw	v0,336(v0)
a080348c:	14400028 	bnez	v0,a0803530 <do_ps+0x1b8>
a0803490:	00000000 	nop
a0803494:	8fc40010 	lw	a0,16(s8)
a0803498:	3c05a083 	lui	a1,0xa083
a080349c:	00801021 	move	v0,a0
a08034a0:	000210c0 	sll	v0,v0,0x3
a08034a4:	00021a00 	sll	v1,v0,0x8
a08034a8:	00431021 	addu	v0,v0,v1
a08034ac:	00441023 	subu	v0,v0,a0
a08034b0:	00021100 	sll	v0,v0,0x4
a08034b4:	00441023 	subu	v0,v0,a0
a08034b8:	00021880 	sll	v1,v0,0x2
a08034bc:	24a27d58 	addiu	v0,a1,32088
a08034c0:	00621021 	addu	v0,v1,v0
a08034c4:	8c420148 	lw	v0,328(v0)
a08034c8:	10400019 	beqz	v0,a0803530 <do_ps+0x1b8>
a08034cc:	00000000 	nop
a08034d0:	8fc40010 	lw	a0,16(s8)
a08034d4:	3c05a083 	lui	a1,0xa083
a08034d8:	00801021 	move	v0,a0
a08034dc:	000210c0 	sll	v0,v0,0x3
a08034e0:	00021a00 	sll	v1,v0,0x8
a08034e4:	00431021 	addu	v0,v0,v1
a08034e8:	00441023 	subu	v0,v0,a0
a08034ec:	00021100 	sll	v0,v0,0x4
a08034f0:	00441023 	subu	v0,v0,a0
a08034f4:	00021880 	sll	v1,v0,0x2
a08034f8:	24a27d58 	addiu	v0,a1,32088
a08034fc:	00621021 	addu	v0,v1,v0
a0803500:	8c430148 	lw	v1,328(v0)
a0803504:	3c02a080 	lui	v0,0xa080
a0803508:	24446548 	addiu	a0,v0,25928
a080350c:	8fc50014 	lw	a1,20(s8)
a0803510:	00603021 	move	a2,v1
a0803514:	0c201601 	jal	a0805804 <do_print>
a0803518:	00000000 	nop
a080351c:	8fc20014 	lw	v0,20(s8)
a0803520:	24420001 	addiu	v0,v0,1
a0803524:	afc20014 	sw	v0,20(s8)
a0803528:	08200d72 	j	a08035c8 <do_ps+0x250>
a080352c:	00000000 	nop
a0803530:	8fc40010 	lw	a0,16(s8)
a0803534:	3c05a083 	lui	a1,0xa083
a0803538:	00801021 	move	v0,a0
a080353c:	000210c0 	sll	v0,v0,0x3
a0803540:	00021a00 	sll	v1,v0,0x8
a0803544:	00431021 	addu	v0,v0,v1
a0803548:	00441023 	subu	v0,v0,a0
a080354c:	00021100 	sll	v0,v0,0x4
a0803550:	00441023 	subu	v0,v0,a0
a0803554:	00021880 	sll	v1,v0,0x2
a0803558:	24a27d58 	addiu	v0,a1,32088
a080355c:	00621021 	addu	v0,v1,v0
a0803560:	8c430150 	lw	v1,336(v0)
a0803564:	24020002 	li	v0,2
a0803568:	14620017 	bne	v1,v0,a08035c8 <do_ps+0x250>
a080356c:	00000000 	nop
a0803570:	8fc40010 	lw	a0,16(s8)
a0803574:	3c05a083 	lui	a1,0xa083
a0803578:	00801021 	move	v0,a0
a080357c:	000210c0 	sll	v0,v0,0x3
a0803580:	00021a00 	sll	v1,v0,0x8
a0803584:	00431021 	addu	v0,v0,v1
a0803588:	00441023 	subu	v0,v0,a0
a080358c:	00021100 	sll	v0,v0,0x4
a0803590:	00441023 	subu	v0,v0,a0
a0803594:	00021880 	sll	v1,v0,0x2
a0803598:	24a27d58 	addiu	v0,a1,32088
a080359c:	00621021 	addu	v0,v1,v0
a08035a0:	8c430148 	lw	v1,328(v0)
a08035a4:	3c02a080 	lui	v0,0xa080
a08035a8:	24446568 	addiu	a0,v0,25960
a08035ac:	8fc50014 	lw	a1,20(s8)
a08035b0:	00603021 	move	a2,v1
a08035b4:	0c201601 	jal	a0805804 <do_print>
a08035b8:	00000000 	nop
a08035bc:	8fc20014 	lw	v0,20(s8)
a08035c0:	24420001 	addiu	v0,v0,1
a08035c4:	afc20014 	sw	v0,20(s8)
a08035c8:	8fc20010 	lw	v0,16(s8)
a08035cc:	24420001 	addiu	v0,v0,1
a08035d0:	afc20010 	sw	v0,16(s8)
a08035d4:	3c02a080 	lui	v0,0xa080
a08035d8:	8c4366d0 	lw	v1,26320(v0)
a08035dc:	8fc20010 	lw	v0,16(s8)
a08035e0:	0043102a 	slt	v0,v0,v1
a08035e4:	1440ff74 	bnez	v0,a08033b8 <do_ps+0x40>
a08035e8:	00000000 	nop
a08035ec:	03c0e821 	move	sp,s8
a08035f0:	8fbf0024 	lw	ra,36(sp)
a08035f4:	8fbe0020 	lw	s8,32(sp)
a08035f8:	27bd0028 	addiu	sp,sp,40
a08035fc:	03e00008 	jr	ra
a0803600:	00000000 	nop

a0803604 <do_getpid>:
a0803604:	27bdfff8 	addiu	sp,sp,-8
a0803608:	afbe0004 	sw	s8,4(sp)
a080360c:	03a0f021 	move	s8,sp
a0803610:	3c02a080 	lui	v0,0xa080
a0803614:	8c42684c 	lw	v0,26700(v0)
a0803618:	8c420148 	lw	v0,328(v0)
a080361c:	03c0e821 	move	sp,s8
a0803620:	8fbe0004 	lw	s8,4(sp)
a0803624:	27bd0008 	addiu	sp,sp,8
a0803628:	03e00008 	jr	ra
a080362c:	00000000 	nop

a0803630 <do_spawn>:
a0803630:	27bdffd8 	addiu	sp,sp,-40
a0803634:	afbf0024 	sw	ra,36(sp)
a0803638:	afbe0020 	sw	s8,32(sp)
a080363c:	03a0f021 	move	s8,sp
a0803640:	afc40028 	sw	a0,40(s8)
a0803644:	3c02a080 	lui	v0,0xa080
a0803648:	24446844 	addiu	a0,v0,26692
a080364c:	0c200f7f 	jal	a0803dfc <queue_is_empty>
a0803650:	00000000 	nop
a0803654:	10400013 	beqz	v0,a08036a4 <do_spawn+0x74>
a0803658:	00000000 	nop
a080365c:	3c02a080 	lui	v0,0xa080
a0803660:	8c4266d0 	lw	v0,26320(v0)
a0803664:	00402021 	move	a0,v0
a0803668:	00801021 	move	v0,a0
a080366c:	000210c0 	sll	v0,v0,0x3
a0803670:	00021a00 	sll	v1,v0,0x8
a0803674:	00431021 	addu	v0,v0,v1
a0803678:	00441023 	subu	v0,v0,a0
a080367c:	00021100 	sll	v0,v0,0x4
a0803680:	00441023 	subu	v0,v0,a0
a0803684:	00021080 	sll	v0,v0,0x2
a0803688:	00401821 	move	v1,v0
a080368c:	3c02a083 	lui	v0,0xa083
a0803690:	24427d58 	addiu	v0,v0,32088
a0803694:	00621021 	addu	v0,v1,v0
a0803698:	afc20018 	sw	v0,24(s8)
a080369c:	08200dae 	j	a08036b8 <do_spawn+0x88>
a08036a0:	00000000 	nop
a08036a4:	3c02a080 	lui	v0,0xa080
a08036a8:	24446844 	addiu	a0,v0,26692
a08036ac:	0c200fe6 	jal	a0803f98 <queue_dequeue>
a08036b0:	00000000 	nop
a08036b4:	afc20018 	sw	v0,24(s8)
a08036b8:	8fc20018 	lw	v0,24(s8)
a08036bc:	afc20014 	sw	v0,20(s8)
a08036c0:	3c02a080 	lui	v0,0xa080
a08036c4:	8c4266d0 	lw	v0,26320(v0)
a08036c8:	00402021 	move	a0,v0
a08036cc:	00801021 	move	v0,a0
a08036d0:	000210c0 	sll	v0,v0,0x3
a08036d4:	00021a00 	sll	v1,v0,0x8
a08036d8:	00431021 	addu	v0,v0,v1
a08036dc:	00441023 	subu	v0,v0,a0
a08036e0:	00021100 	sll	v0,v0,0x4
a08036e4:	00441023 	subu	v0,v0,a0
a08036e8:	00021080 	sll	v0,v0,0x2
a08036ec:	00401821 	move	v1,v0
a08036f0:	3c02a083 	lui	v0,0xa083
a08036f4:	24427d58 	addiu	v0,v0,32088
a08036f8:	00621021 	addu	v0,v1,v0
a08036fc:	afc20014 	sw	v0,20(s8)
a0803700:	3c02a080 	lui	v0,0xa080
a0803704:	8c4366d4 	lw	v1,26324(v0)
a0803708:	8fc20014 	lw	v0,20(s8)
a080370c:	ac430148 	sw	v1,328(v0)
a0803710:	24630001 	addiu	v1,v1,1
a0803714:	3c02a080 	lui	v0,0xa080
a0803718:	ac4366d4 	sw	v1,26324(v0)
a080371c:	3c02a080 	lui	v0,0xa080
a0803720:	8c4266d0 	lw	v0,26320(v0)
a0803724:	24430001 	addiu	v1,v0,1
a0803728:	3c02a080 	lui	v0,0xa080
a080372c:	ac4366d0 	sw	v1,26320(v0)
a0803730:	afc00010 	sw	zero,16(s8)
a0803734:	08200ddd 	j	a0803774 <do_spawn+0x144>
a0803738:	00000000 	nop
a080373c:	8fc20010 	lw	v0,16(s8)
a0803740:	8fc30014 	lw	v1,20(s8)
a0803744:	00021080 	sll	v0,v0,0x2
a0803748:	00621021 	addu	v0,v1,v0
a080374c:	ac400000 	sw	zero,0(v0)
a0803750:	8fc20010 	lw	v0,16(s8)
a0803754:	8fc30014 	lw	v1,20(s8)
a0803758:	24420026 	addiu	v0,v0,38
a080375c:	00021080 	sll	v0,v0,0x2
a0803760:	00621021 	addu	v0,v1,v0
a0803764:	ac400004 	sw	zero,4(v0)
a0803768:	8fc20010 	lw	v0,16(s8)
a080376c:	24420001 	addiu	v0,v0,1
a0803770:	afc20010 	sw	v0,16(s8)
a0803774:	8fc20010 	lw	v0,16(s8)
a0803778:	28420020 	slti	v0,v0,32
a080377c:	1440ffef 	bnez	v0,a080373c <do_spawn+0x10c>
a0803780:	00000000 	nop
a0803784:	8fc20028 	lw	v0,40(s8)
a0803788:	8c430008 	lw	v1,8(v0)
a080378c:	8fc20014 	lw	v0,20(s8)
a0803790:	ac43014c 	sw	v1,332(v0)
a0803794:	8fc30014 	lw	v1,20(s8)
a0803798:	24020002 	li	v0,2
a080379c:	ac620150 	sw	v0,336(v1)
a08037a0:	0c200c93 	jal	a080324c <get_stack>
a08037a4:	00000000 	nop
a08037a8:	00401821 	move	v1,v0
a08037ac:	8fc20014 	lw	v0,20(s8)
a08037b0:	ac430074 	sw	v1,116(v0)
a08037b4:	8fc20014 	lw	v0,20(s8)
a08037b8:	8c430074 	lw	v1,116(v0)
a08037bc:	8fc20014 	lw	v0,20(s8)
a08037c0:	ac430138 	sw	v1,312(v0)
a08037c4:	3c02a080 	lui	v0,0xa080
a08037c8:	244307c8 	addiu	v1,v0,1992
a08037cc:	8fc20014 	lw	v0,20(s8)
a08037d0:	ac43007c 	sw	v1,124(v0)
a08037d4:	8fc20028 	lw	v0,40(s8)
a08037d8:	8c430004 	lw	v1,4(v0)
a08037dc:	8fc20014 	lw	v0,20(s8)
a08037e0:	ac430094 	sw	v1,148(v0)
a08037e4:	8fc30014 	lw	v1,20(s8)
a08037e8:	3c021000 	lui	v0,0x1000
a08037ec:	34428003 	ori	v0,v0,0x8003
a08037f0:	ac620080 	sw	v0,128(v1)
a08037f4:	0c200c93 	jal	a080324c <get_stack>
a08037f8:	00000000 	nop
a08037fc:	00401821 	move	v1,v0
a0803800:	8fc20014 	lw	v0,20(s8)
a0803804:	ac430110 	sw	v1,272(v0)
a0803808:	8fc20014 	lw	v0,20(s8)
a080380c:	8c430110 	lw	v1,272(v0)
a0803810:	8fc20014 	lw	v0,20(s8)
a0803814:	ac43013c 	sw	v1,316(v0)
a0803818:	8fc20028 	lw	v0,40(s8)
a080381c:	8c430004 	lw	v1,4(v0)
a0803820:	8fc20014 	lw	v0,20(s8)
a0803824:	ac430118 	sw	v1,280(v0)
a0803828:	8fc20028 	lw	v0,40(s8)
a080382c:	8c430004 	lw	v1,4(v0)
a0803830:	8fc20014 	lw	v0,20(s8)
a0803834:	ac430130 	sw	v1,304(v0)
a0803838:	8fc30014 	lw	v1,20(s8)
a080383c:	3c021000 	lui	v0,0x1000
a0803840:	34428003 	ori	v0,v0,0x8003
a0803844:	ac62011c 	sw	v0,284(v1)
a0803848:	8fc20028 	lw	v0,40(s8)
a080384c:	8c42000c 	lw	v0,12(v0)
a0803850:	00401821 	move	v1,v0
a0803854:	8fc20014 	lw	v0,20(s8)
a0803858:	ac43015c 	sw	v1,348(v0)
a080385c:	8fc20028 	lw	v0,40(s8)
a0803860:	8c42000c 	lw	v0,12(v0)
a0803864:	00401821 	move	v1,v0
a0803868:	8fc20014 	lw	v0,20(s8)
a080386c:	ac430160 	sw	v1,352(v0)
a0803870:	8fc20014 	lw	v0,20(s8)
a0803874:	ac400168 	sw	zero,360(v0)
a0803878:	8fc20014 	lw	v0,20(s8)
a080387c:	ac400164 	sw	zero,356(v0)
a0803880:	8fc30014 	lw	v1,20(s8)
a0803884:	2402ffff 	li	v0,-1
a0803888:	ac6201ac 	sw	v0,428(v1)
a080388c:	3c02a080 	lui	v0,0xa080
a0803890:	24446820 	addiu	a0,v0,26656
a0803894:	8fc50014 	lw	a1,20(s8)
a0803898:	0c200fbc 	jal	a0803ef0 <priority_queue_push>
a080389c:	00000000 	nop
a08038a0:	8fc30014 	lw	v1,20(s8)
a08038a4:	3c020002 	lui	v0,0x2
a08038a8:	00621821 	addu	v1,v1,v0
a08038ac:	3c02a080 	lui	v0,0xa080
a08038b0:	24426820 	addiu	v0,v0,26656
a08038b4:	ac6201b0 	sw	v0,432(v1)
a08038b8:	8fc30014 	lw	v1,20(s8)
a08038bc:	3c020002 	lui	v0,0x2
a08038c0:	344201b4 	ori	v0,v0,0x1b4
a08038c4:	00621021 	addu	v0,v1,v0
a08038c8:	00402021 	move	a0,v0
a08038cc:	0c200f70 	jal	a0803dc0 <queue_init>
a08038d0:	00000000 	nop
a08038d4:	03c0e821 	move	sp,s8
a08038d8:	8fbf0024 	lw	ra,36(sp)
a08038dc:	8fbe0020 	lw	s8,32(sp)
a08038e0:	27bd0028 	addiu	sp,sp,40
a08038e4:	03e00008 	jr	ra
a08038e8:	00000000 	nop

a08038ec <do_kill>:
a08038ec:	27bdffd8 	addiu	sp,sp,-40
a08038f0:	afbf0024 	sw	ra,36(sp)
a08038f4:	afbe0020 	sw	s8,32(sp)
a08038f8:	03a0f021 	move	s8,sp
a08038fc:	afc40028 	sw	a0,40(s8)
a0803900:	afc00018 	sw	zero,24(s8)
a0803904:	08200e46 	j	a0803918 <do_kill+0x2c>
a0803908:	00000000 	nop
a080390c:	8fc20018 	lw	v0,24(s8)
a0803910:	24420001 	addiu	v0,v0,1
a0803914:	afc20018 	sw	v0,24(s8)
a0803918:	8fc40018 	lw	a0,24(s8)
a080391c:	3c05a083 	lui	a1,0xa083
a0803920:	00801021 	move	v0,a0
a0803924:	000210c0 	sll	v0,v0,0x3
a0803928:	00021a00 	sll	v1,v0,0x8
a080392c:	00431021 	addu	v0,v0,v1
a0803930:	00441023 	subu	v0,v0,a0
a0803934:	00021100 	sll	v0,v0,0x4
a0803938:	00441023 	subu	v0,v0,a0
a080393c:	00021880 	sll	v1,v0,0x2
a0803940:	24a27d58 	addiu	v0,a1,32088
a0803944:	00621021 	addu	v0,v1,v0
a0803948:	8c430148 	lw	v1,328(v0)
a080394c:	8fc20028 	lw	v0,40(s8)
a0803950:	1462ffee 	bne	v1,v0,a080390c <do_kill+0x20>
a0803954:	00000000 	nop
a0803958:	8fc40018 	lw	a0,24(s8)
a080395c:	00801021 	move	v0,a0
a0803960:	000210c0 	sll	v0,v0,0x3
a0803964:	00021a00 	sll	v1,v0,0x8
a0803968:	00431021 	addu	v0,v0,v1
a080396c:	00441023 	subu	v0,v0,a0
a0803970:	00021100 	sll	v0,v0,0x4
a0803974:	00441023 	subu	v0,v0,a0
a0803978:	00021080 	sll	v0,v0,0x2
a080397c:	00401821 	move	v1,v0
a0803980:	3c02a083 	lui	v0,0xa083
a0803984:	24427d58 	addiu	v0,v0,32088
a0803988:	00621021 	addu	v0,v1,v0
a080398c:	afc20014 	sw	v0,20(s8)
a0803990:	8fc30014 	lw	v1,20(s8)
a0803994:	3c020002 	lui	v0,0x2
a0803998:	00621021 	addu	v0,v1,v0
a080399c:	8c4201b0 	lw	v0,432(v0)
a08039a0:	10400012 	beqz	v0,a08039ec <do_kill+0x100>
a08039a4:	00000000 	nop
a08039a8:	3c02a080 	lui	v0,0xa080
a08039ac:	8c43684c 	lw	v1,26700(v0)
a08039b0:	8fc20014 	lw	v0,20(s8)
a08039b4:	1043000d 	beq	v0,v1,a08039ec <do_kill+0x100>
a08039b8:	00000000 	nop
a08039bc:	8fc30014 	lw	v1,20(s8)
a08039c0:	3c020002 	lui	v0,0x2
a08039c4:	00621021 	addu	v0,v1,v0
a08039c8:	8c4201b0 	lw	v0,432(v0)
a08039cc:	00402021 	move	a0,v0
a08039d0:	8fc50014 	lw	a1,20(s8)
a08039d4:	0c20100b 	jal	a080402c <queue_remove>
a08039d8:	00000000 	nop
a08039dc:	8fc30014 	lw	v1,20(s8)
a08039e0:	3c020002 	lui	v0,0x2
a08039e4:	00621021 	addu	v0,v1,v0
a08039e8:	ac4001b0 	sw	zero,432(v0)
a08039ec:	8fc30014 	lw	v1,20(s8)
a08039f0:	3c020002 	lui	v0,0x2
a08039f4:	344201b4 	ori	v0,v0,0x1b4
a08039f8:	00621021 	addu	v0,v1,v0
a08039fc:	00402021 	move	a0,v0
a0803a00:	0c200c6f 	jal	a08031bc <do_unblock_all>
a0803a04:	00000000 	nop
a0803a08:	3c02a080 	lui	v0,0xa080
a0803a0c:	8c4266c0 	lw	v0,26304(v0)
a0803a10:	24430001 	addiu	v1,v0,1
a0803a14:	3c02a080 	lui	v0,0xa080
a0803a18:	ac4366c0 	sw	v1,26304(v0)
a0803a1c:	3c02a080 	lui	v0,0xa080
a0803a20:	8c4366c0 	lw	v1,26304(v0)
a0803a24:	8fc20014 	lw	v0,20(s8)
a0803a28:	8c440138 	lw	a0,312(v0)
a0803a2c:	3c02a083 	lui	v0,0xa083
a0803a30:	00031880 	sll	v1,v1,0x2
a0803a34:	24427c38 	addiu	v0,v0,31800
a0803a38:	00621021 	addu	v0,v1,v0
a0803a3c:	ac440000 	sw	a0,0(v0)
a0803a40:	3c02a080 	lui	v0,0xa080
a0803a44:	24446844 	addiu	a0,v0,26692
a0803a48:	8fc50014 	lw	a1,20(s8)
a0803a4c:	0c200f92 	jal	a0803e48 <queue_push>
a0803a50:	00000000 	nop
a0803a54:	8fc30014 	lw	v1,20(s8)
a0803a58:	3c020002 	lui	v0,0x2
a0803a5c:	00621821 	addu	v1,v1,v0
a0803a60:	3c02a080 	lui	v0,0xa080
a0803a64:	24426844 	addiu	v0,v0,26692
a0803a68:	ac6201b0 	sw	v0,432(v1)
a0803a6c:	afc0001c 	sw	zero,28(s8)
a0803a70:	08200eaa 	j	a0803aa8 <do_kill+0x1bc>
a0803a74:	00000000 	nop
a0803a78:	8fc2001c 	lw	v0,28(s8)
a0803a7c:	8fc30014 	lw	v1,20(s8)
a0803a80:	2442005a 	addiu	v0,v0,90
a0803a84:	00021080 	sll	v0,v0,0x2
a0803a88:	00621021 	addu	v0,v1,v0
a0803a8c:	8c420004 	lw	v0,4(v0)
a0803a90:	00402021 	move	a0,v0
a0803a94:	0c20086a 	jal	a08021a8 <do_mutex_lock_release>
a0803a98:	00000000 	nop
a0803a9c:	8fc2001c 	lw	v0,28(s8)
a0803aa0:	24420001 	addiu	v0,v0,1
a0803aa4:	afc2001c 	sw	v0,28(s8)
a0803aa8:	8fc20014 	lw	v0,20(s8)
a0803aac:	8c4301ac 	lw	v1,428(v0)
a0803ab0:	8fc2001c 	lw	v0,28(s8)
a0803ab4:	0062102a 	slt	v0,v1,v0
a0803ab8:	1040ffef 	beqz	v0,a0803a78 <do_kill+0x18c>
a0803abc:	00000000 	nop
a0803ac0:	8fc30014 	lw	v1,20(s8)
a0803ac4:	24020003 	li	v0,3
a0803ac8:	ac620150 	sw	v0,336(v1)
a0803acc:	3c02a080 	lui	v0,0xa080
a0803ad0:	8c43684c 	lw	v1,26700(v0)
a0803ad4:	8fc20014 	lw	v0,20(s8)
a0803ad8:	14430003 	bne	v0,v1,a0803ae8 <do_kill+0x1fc>
a0803adc:	00000000 	nop
a0803ae0:	0c20015e 	jal	a0800578 <do_scheduler>
a0803ae4:	00000000 	nop
a0803ae8:	03c0e821 	move	sp,s8
a0803aec:	8fbf0024 	lw	ra,36(sp)
a0803af0:	8fbe0020 	lw	s8,32(sp)
a0803af4:	27bd0028 	addiu	sp,sp,40
a0803af8:	03e00008 	jr	ra
a0803afc:	00000000 	nop

a0803b00 <do_exit>:
a0803b00:	27bdffd8 	addiu	sp,sp,-40
a0803b04:	afbf0024 	sw	ra,36(sp)
a0803b08:	afbe0020 	sw	s8,32(sp)
a0803b0c:	03a0f021 	move	s8,sp
a0803b10:	3c02a080 	lui	v0,0xa080
a0803b14:	8c42684c 	lw	v0,26700(v0)
a0803b18:	afc20014 	sw	v0,20(s8)
a0803b1c:	8fc30014 	lw	v1,20(s8)
a0803b20:	3c020002 	lui	v0,0x2
a0803b24:	00621021 	addu	v0,v1,v0
a0803b28:	ac4001b0 	sw	zero,432(v0)
a0803b2c:	8fc30014 	lw	v1,20(s8)
a0803b30:	3c020002 	lui	v0,0x2
a0803b34:	344201b4 	ori	v0,v0,0x1b4
a0803b38:	00621021 	addu	v0,v1,v0
a0803b3c:	00402021 	move	a0,v0
a0803b40:	0c200c6f 	jal	a08031bc <do_unblock_all>
a0803b44:	00000000 	nop
a0803b48:	3c02a080 	lui	v0,0xa080
a0803b4c:	8c4266c0 	lw	v0,26304(v0)
a0803b50:	24430001 	addiu	v1,v0,1
a0803b54:	3c02a080 	lui	v0,0xa080
a0803b58:	ac4366c0 	sw	v1,26304(v0)
a0803b5c:	3c02a080 	lui	v0,0xa080
a0803b60:	8c4366c0 	lw	v1,26304(v0)
a0803b64:	8fc20014 	lw	v0,20(s8)
a0803b68:	8c440138 	lw	a0,312(v0)
a0803b6c:	3c02a083 	lui	v0,0xa083
a0803b70:	00031880 	sll	v1,v1,0x2
a0803b74:	24427c38 	addiu	v0,v0,31800
a0803b78:	00621021 	addu	v0,v1,v0
a0803b7c:	ac440000 	sw	a0,0(v0)
a0803b80:	3c02a080 	lui	v0,0xa080
a0803b84:	24446844 	addiu	a0,v0,26692
a0803b88:	8fc50014 	lw	a1,20(s8)
a0803b8c:	0c200f92 	jal	a0803e48 <queue_push>
a0803b90:	00000000 	nop
a0803b94:	8fc30014 	lw	v1,20(s8)
a0803b98:	3c020002 	lui	v0,0x2
a0803b9c:	00621821 	addu	v1,v1,v0
a0803ba0:	3c02a080 	lui	v0,0xa080
a0803ba4:	24426844 	addiu	v0,v0,26692
a0803ba8:	ac6201b0 	sw	v0,432(v1)
a0803bac:	afc00018 	sw	zero,24(s8)
a0803bb0:	08200efa 	j	a0803be8 <do_exit+0xe8>
a0803bb4:	00000000 	nop
a0803bb8:	8fc20018 	lw	v0,24(s8)
a0803bbc:	8fc30014 	lw	v1,20(s8)
a0803bc0:	2442005a 	addiu	v0,v0,90
a0803bc4:	00021080 	sll	v0,v0,0x2
a0803bc8:	00621021 	addu	v0,v1,v0
a0803bcc:	8c420004 	lw	v0,4(v0)
a0803bd0:	00402021 	move	a0,v0
a0803bd4:	0c20086a 	jal	a08021a8 <do_mutex_lock_release>
a0803bd8:	00000000 	nop
a0803bdc:	8fc20018 	lw	v0,24(s8)
a0803be0:	24420001 	addiu	v0,v0,1
a0803be4:	afc20018 	sw	v0,24(s8)
a0803be8:	8fc20014 	lw	v0,20(s8)
a0803bec:	8c4301ac 	lw	v1,428(v0)
a0803bf0:	8fc20018 	lw	v0,24(s8)
a0803bf4:	0062102a 	slt	v0,v1,v0
a0803bf8:	1040ffef 	beqz	v0,a0803bb8 <do_exit+0xb8>
a0803bfc:	00000000 	nop
a0803c00:	8fc30014 	lw	v1,20(s8)
a0803c04:	24020003 	li	v0,3
a0803c08:	ac620150 	sw	v0,336(v1)
a0803c0c:	0c20015e 	jal	a0800578 <do_scheduler>
a0803c10:	00000000 	nop
a0803c14:	03c0e821 	move	sp,s8
a0803c18:	8fbf0024 	lw	ra,36(sp)
a0803c1c:	8fbe0020 	lw	s8,32(sp)
a0803c20:	27bd0028 	addiu	sp,sp,40
a0803c24:	03e00008 	jr	ra
a0803c28:	00000000 	nop

a0803c2c <do_wait>:
a0803c2c:	27bdffe0 	addiu	sp,sp,-32
a0803c30:	afbf001c 	sw	ra,28(sp)
a0803c34:	afbe0018 	sw	s8,24(sp)
a0803c38:	03a0f021 	move	s8,sp
a0803c3c:	afc40020 	sw	a0,32(s8)
a0803c40:	afc00010 	sw	zero,16(s8)
a0803c44:	08200f16 	j	a0803c58 <do_wait+0x2c>
a0803c48:	00000000 	nop
a0803c4c:	8fc20010 	lw	v0,16(s8)
a0803c50:	24420001 	addiu	v0,v0,1
a0803c54:	afc20010 	sw	v0,16(s8)
a0803c58:	8fc40010 	lw	a0,16(s8)
a0803c5c:	3c05a083 	lui	a1,0xa083
a0803c60:	00801021 	move	v0,a0
a0803c64:	000210c0 	sll	v0,v0,0x3
a0803c68:	00021a00 	sll	v1,v0,0x8
a0803c6c:	00431021 	addu	v0,v0,v1
a0803c70:	00441023 	subu	v0,v0,a0
a0803c74:	00021100 	sll	v0,v0,0x4
a0803c78:	00441023 	subu	v0,v0,a0
a0803c7c:	00021880 	sll	v1,v0,0x2
a0803c80:	24a27d58 	addiu	v0,a1,32088
a0803c84:	00621021 	addu	v0,v1,v0
a0803c88:	8c430148 	lw	v1,328(v0)
a0803c8c:	8fc20020 	lw	v0,32(s8)
a0803c90:	1462ffee 	bne	v1,v0,a0803c4c <do_wait+0x20>
a0803c94:	00000000 	nop
a0803c98:	8fc40010 	lw	a0,16(s8)
a0803c9c:	3c05a083 	lui	a1,0xa083
a0803ca0:	00801021 	move	v0,a0
a0803ca4:	000210c0 	sll	v0,v0,0x3
a0803ca8:	00021a00 	sll	v1,v0,0x8
a0803cac:	00431021 	addu	v0,v0,v1
a0803cb0:	00441023 	subu	v0,v0,a0
a0803cb4:	00021100 	sll	v0,v0,0x4
a0803cb8:	00441023 	subu	v0,v0,a0
a0803cbc:	00021880 	sll	v1,v0,0x2
a0803cc0:	24a27d58 	addiu	v0,a1,32088
a0803cc4:	00621821 	addu	v1,v1,v0
a0803cc8:	3c020002 	lui	v0,0x2
a0803ccc:	00431021 	addu	v0,v0,v1
a0803cd0:	8c4201b0 	lw	v0,432(v0)
a0803cd4:	10400031 	beqz	v0,a0803d9c <do_wait+0x170>
a0803cd8:	00000000 	nop
a0803cdc:	3c02a080 	lui	v0,0xa080
a0803ce0:	8c42684c 	lw	v0,26700(v0)
a0803ce4:	ac400150 	sw	zero,336(v0)
a0803ce8:	3c02a080 	lui	v0,0xa080
a0803cec:	8c45684c 	lw	a1,26700(v0)
a0803cf0:	8fc40010 	lw	a0,16(s8)
a0803cf4:	00801021 	move	v0,a0
a0803cf8:	000210c0 	sll	v0,v0,0x3
a0803cfc:	00021a00 	sll	v1,v0,0x8
a0803d00:	00431021 	addu	v0,v0,v1
a0803d04:	00441023 	subu	v0,v0,a0
a0803d08:	00021100 	sll	v0,v0,0x4
a0803d0c:	00441023 	subu	v0,v0,a0
a0803d10:	00021880 	sll	v1,v0,0x2
a0803d14:	3c020002 	lui	v0,0x2
a0803d18:	344201b0 	ori	v0,v0,0x1b0
a0803d1c:	00621821 	addu	v1,v1,v0
a0803d20:	3c02a083 	lui	v0,0xa083
a0803d24:	24427d58 	addiu	v0,v0,32088
a0803d28:	00621021 	addu	v0,v1,v0
a0803d2c:	24430004 	addiu	v1,v0,4
a0803d30:	3c020002 	lui	v0,0x2
a0803d34:	00a21021 	addu	v0,a1,v0
a0803d38:	ac4301b0 	sw	v1,432(v0)
a0803d3c:	8fc40010 	lw	a0,16(s8)
a0803d40:	00801021 	move	v0,a0
a0803d44:	000210c0 	sll	v0,v0,0x3
a0803d48:	00021a00 	sll	v1,v0,0x8
a0803d4c:	00431021 	addu	v0,v0,v1
a0803d50:	00441023 	subu	v0,v0,a0
a0803d54:	00021100 	sll	v0,v0,0x4
a0803d58:	00441023 	subu	v0,v0,a0
a0803d5c:	00021880 	sll	v1,v0,0x2
a0803d60:	3c020002 	lui	v0,0x2
a0803d64:	344201b0 	ori	v0,v0,0x1b0
a0803d68:	00621821 	addu	v1,v1,v0
a0803d6c:	3c02a083 	lui	v0,0xa083
a0803d70:	24427d58 	addiu	v0,v0,32088
a0803d74:	00621021 	addu	v0,v1,v0
a0803d78:	24430004 	addiu	v1,v0,4
a0803d7c:	3c02a080 	lui	v0,0xa080
a0803d80:	8c42684c 	lw	v0,26700(v0)
a0803d84:	00602021 	move	a0,v1
a0803d88:	00402821 	move	a1,v0
a0803d8c:	0c200f92 	jal	a0803e48 <queue_push>
a0803d90:	00000000 	nop
a0803d94:	0c20015e 	jal	a0800578 <do_scheduler>
a0803d98:	00000000 	nop
a0803d9c:	03c0e821 	move	sp,s8
a0803da0:	8fbf001c 	lw	ra,28(sp)
a0803da4:	8fbe0018 	lw	s8,24(sp)
a0803da8:	27bd0020 	addiu	sp,sp,32
a0803dac:	03e00008 	jr	ra
a0803db0:	00000000 	nop
	...

a0803dc0 <queue_init>:
a0803dc0:	27bdfff8 	addiu	sp,sp,-8
a0803dc4:	afbe0004 	sw	s8,4(sp)
a0803dc8:	03a0f021 	move	s8,sp
a0803dcc:	afc40008 	sw	a0,8(s8)
a0803dd0:	8fc20008 	lw	v0,8(s8)
a0803dd4:	ac400004 	sw	zero,4(v0)
a0803dd8:	8fc20008 	lw	v0,8(s8)
a0803ddc:	8c430004 	lw	v1,4(v0)
a0803de0:	8fc20008 	lw	v0,8(s8)
a0803de4:	ac430000 	sw	v1,0(v0)
a0803de8:	03c0e821 	move	sp,s8
a0803dec:	8fbe0004 	lw	s8,4(sp)
a0803df0:	27bd0008 	addiu	sp,sp,8
a0803df4:	03e00008 	jr	ra
a0803df8:	00000000 	nop

a0803dfc <queue_is_empty>:
a0803dfc:	27bdfff0 	addiu	sp,sp,-16
a0803e00:	afbe000c 	sw	s8,12(sp)
a0803e04:	03a0f021 	move	s8,sp
a0803e08:	afc40010 	sw	a0,16(s8)
a0803e0c:	8fc20010 	lw	v0,16(s8)
a0803e10:	8c420000 	lw	v0,0(v0)
a0803e14:	14400005 	bnez	v0,a0803e2c <queue_is_empty+0x30>
a0803e18:	00000000 	nop
a0803e1c:	24020001 	li	v0,1
a0803e20:	afc20000 	sw	v0,0(s8)
a0803e24:	08200f8c 	j	a0803e30 <queue_is_empty+0x34>
a0803e28:	00000000 	nop
a0803e2c:	afc00000 	sw	zero,0(s8)
a0803e30:	8fc20000 	lw	v0,0(s8)
a0803e34:	03c0e821 	move	sp,s8
a0803e38:	8fbe000c 	lw	s8,12(sp)
a0803e3c:	27bd0010 	addiu	sp,sp,16
a0803e40:	03e00008 	jr	ra
a0803e44:	00000000 	nop

a0803e48 <queue_push>:
a0803e48:	27bdfff0 	addiu	sp,sp,-16
a0803e4c:	afbe000c 	sw	s8,12(sp)
a0803e50:	03a0f021 	move	s8,sp
a0803e54:	afc40010 	sw	a0,16(s8)
a0803e58:	afc50014 	sw	a1,20(s8)
a0803e5c:	8fc20014 	lw	v0,20(s8)
a0803e60:	afc20000 	sw	v0,0(s8)
a0803e64:	8fc20010 	lw	v0,16(s8)
a0803e68:	8c420000 	lw	v0,0(v0)
a0803e6c:	1440000d 	bnez	v0,a0803ea4 <queue_push+0x5c>
a0803e70:	00000000 	nop
a0803e74:	8fc30010 	lw	v1,16(s8)
a0803e78:	8fc20014 	lw	v0,20(s8)
a0803e7c:	ac620000 	sw	v0,0(v1)
a0803e80:	8fc30010 	lw	v1,16(s8)
a0803e84:	8fc20014 	lw	v0,20(s8)
a0803e88:	ac620004 	sw	v0,4(v1)
a0803e8c:	8fc20000 	lw	v0,0(s8)
a0803e90:	ac400144 	sw	zero,324(v0)
a0803e94:	8fc20000 	lw	v0,0(s8)
a0803e98:	ac400140 	sw	zero,320(v0)
a0803e9c:	08200fb7 	j	a0803edc <queue_push+0x94>
a0803ea0:	00000000 	nop
a0803ea4:	8fc20010 	lw	v0,16(s8)
a0803ea8:	8c420004 	lw	v0,4(v0)
a0803eac:	00401821 	move	v1,v0
a0803eb0:	8fc20014 	lw	v0,20(s8)
a0803eb4:	ac620144 	sw	v0,324(v1)
a0803eb8:	8fc20000 	lw	v0,0(s8)
a0803ebc:	ac400144 	sw	zero,324(v0)
a0803ec0:	8fc20010 	lw	v0,16(s8)
a0803ec4:	8c430004 	lw	v1,4(v0)
a0803ec8:	8fc20000 	lw	v0,0(s8)
a0803ecc:	ac430140 	sw	v1,320(v0)
a0803ed0:	8fc30010 	lw	v1,16(s8)
a0803ed4:	8fc20014 	lw	v0,20(s8)
a0803ed8:	ac620004 	sw	v0,4(v1)
a0803edc:	03c0e821 	move	sp,s8
a0803ee0:	8fbe000c 	lw	s8,12(sp)
a0803ee4:	27bd0010 	addiu	sp,sp,16
a0803ee8:	03e00008 	jr	ra
a0803eec:	00000000 	nop

a0803ef0 <priority_queue_push>:
a0803ef0:	27bdfff0 	addiu	sp,sp,-16
a0803ef4:	afbe000c 	sw	s8,12(sp)
a0803ef8:	03a0f021 	move	s8,sp
a0803efc:	afc40010 	sw	a0,16(s8)
a0803f00:	afc50014 	sw	a1,20(s8)
a0803f04:	8fc20014 	lw	v0,20(s8)
a0803f08:	afc20000 	sw	v0,0(s8)
a0803f0c:	8fc20010 	lw	v0,16(s8)
a0803f10:	8c420000 	lw	v0,0(v0)
a0803f14:	1440000d 	bnez	v0,a0803f4c <priority_queue_push+0x5c>
a0803f18:	00000000 	nop
a0803f1c:	8fc30010 	lw	v1,16(s8)
a0803f20:	8fc20014 	lw	v0,20(s8)
a0803f24:	ac620000 	sw	v0,0(v1)
a0803f28:	8fc30010 	lw	v1,16(s8)
a0803f2c:	8fc20014 	lw	v0,20(s8)
a0803f30:	ac620004 	sw	v0,4(v1)
a0803f34:	8fc20000 	lw	v0,0(s8)
a0803f38:	ac400144 	sw	zero,324(v0)
a0803f3c:	8fc20000 	lw	v0,0(s8)
a0803f40:	ac400140 	sw	zero,320(v0)
a0803f44:	08200fe1 	j	a0803f84 <priority_queue_push+0x94>
a0803f48:	00000000 	nop
a0803f4c:	8fc20010 	lw	v0,16(s8)
a0803f50:	8c420004 	lw	v0,4(v0)
a0803f54:	00401821 	move	v1,v0
a0803f58:	8fc20014 	lw	v0,20(s8)
a0803f5c:	ac620144 	sw	v0,324(v1)
a0803f60:	8fc20000 	lw	v0,0(s8)
a0803f64:	ac400144 	sw	zero,324(v0)
a0803f68:	8fc20010 	lw	v0,16(s8)
a0803f6c:	8c430004 	lw	v1,4(v0)
a0803f70:	8fc20000 	lw	v0,0(s8)
a0803f74:	ac430140 	sw	v1,320(v0)
a0803f78:	8fc30010 	lw	v1,16(s8)
a0803f7c:	8fc20014 	lw	v0,20(s8)
a0803f80:	ac620004 	sw	v0,4(v1)
a0803f84:	03c0e821 	move	sp,s8
a0803f88:	8fbe000c 	lw	s8,12(sp)
a0803f8c:	27bd0010 	addiu	sp,sp,16
a0803f90:	03e00008 	jr	ra
a0803f94:	00000000 	nop

a0803f98 <queue_dequeue>:
a0803f98:	27bdfff0 	addiu	sp,sp,-16
a0803f9c:	afbe000c 	sw	s8,12(sp)
a0803fa0:	03a0f021 	move	s8,sp
a0803fa4:	afc40010 	sw	a0,16(s8)
a0803fa8:	8fc20010 	lw	v0,16(s8)
a0803fac:	8c420000 	lw	v0,0(v0)
a0803fb0:	afc20000 	sw	v0,0(s8)
a0803fb4:	8fc20000 	lw	v0,0(s8)
a0803fb8:	8c420144 	lw	v0,324(v0)
a0803fbc:	14400009 	bnez	v0,a0803fe4 <queue_dequeue+0x4c>
a0803fc0:	00000000 	nop
a0803fc4:	8fc20010 	lw	v0,16(s8)
a0803fc8:	ac400004 	sw	zero,4(v0)
a0803fcc:	8fc20010 	lw	v0,16(s8)
a0803fd0:	8c430004 	lw	v1,4(v0)
a0803fd4:	8fc20010 	lw	v0,16(s8)
a0803fd8:	ac430000 	sw	v1,0(v0)
a0803fdc:	08201001 	j	a0804004 <queue_dequeue+0x6c>
a0803fe0:	00000000 	nop
a0803fe4:	8fc20010 	lw	v0,16(s8)
a0803fe8:	8c420000 	lw	v0,0(v0)
a0803fec:	8c430144 	lw	v1,324(v0)
a0803ff0:	8fc20010 	lw	v0,16(s8)
a0803ff4:	ac430000 	sw	v1,0(v0)
a0803ff8:	8fc20010 	lw	v0,16(s8)
a0803ffc:	8c420000 	lw	v0,0(v0)
a0804000:	ac400140 	sw	zero,320(v0)
a0804004:	8fc20000 	lw	v0,0(s8)
a0804008:	ac400140 	sw	zero,320(v0)
a080400c:	8fc20000 	lw	v0,0(s8)
a0804010:	ac400144 	sw	zero,324(v0)
a0804014:	8fc20000 	lw	v0,0(s8)
a0804018:	03c0e821 	move	sp,s8
a080401c:	8fbe000c 	lw	s8,12(sp)
a0804020:	27bd0010 	addiu	sp,sp,16
a0804024:	03e00008 	jr	ra
a0804028:	00000000 	nop

a080402c <queue_remove>:
a080402c:	27bdfff0 	addiu	sp,sp,-16
a0804030:	afbe000c 	sw	s8,12(sp)
a0804034:	03a0f021 	move	s8,sp
a0804038:	afc40010 	sw	a0,16(s8)
a080403c:	afc50014 	sw	a1,20(s8)
a0804040:	8fc20014 	lw	v0,20(s8)
a0804044:	afc20004 	sw	v0,4(s8)
a0804048:	8fc20004 	lw	v0,4(s8)
a080404c:	8c420144 	lw	v0,324(v0)
a0804050:	afc20000 	sw	v0,0(s8)
a0804054:	8fc20010 	lw	v0,16(s8)
a0804058:	8c430000 	lw	v1,0(v0)
a080405c:	8fc20014 	lw	v0,20(s8)
a0804060:	1462000c 	bne	v1,v0,a0804094 <queue_remove+0x68>
a0804064:	00000000 	nop
a0804068:	8fc20010 	lw	v0,16(s8)
a080406c:	8c430004 	lw	v1,4(v0)
a0804070:	8fc20014 	lw	v0,20(s8)
a0804074:	14620007 	bne	v1,v0,a0804094 <queue_remove+0x68>
a0804078:	00000000 	nop
a080407c:	8fc20010 	lw	v0,16(s8)
a0804080:	ac400000 	sw	zero,0(v0)
a0804084:	8fc20010 	lw	v0,16(s8)
a0804088:	ac400004 	sw	zero,4(v0)
a080408c:	0820104d 	j	a0804134 <queue_remove+0x108>
a0804090:	00000000 	nop
a0804094:	8fc20010 	lw	v0,16(s8)
a0804098:	8c430000 	lw	v1,0(v0)
a080409c:	8fc20014 	lw	v0,20(s8)
a08040a0:	1462000a 	bne	v1,v0,a08040cc <queue_remove+0xa0>
a08040a4:	00000000 	nop
a08040a8:	8fc20004 	lw	v0,4(s8)
a08040ac:	8c430144 	lw	v1,324(v0)
a08040b0:	8fc20010 	lw	v0,16(s8)
a08040b4:	ac430000 	sw	v1,0(v0)
a08040b8:	8fc20010 	lw	v0,16(s8)
a08040bc:	8c420000 	lw	v0,0(v0)
a08040c0:	ac400140 	sw	zero,320(v0)
a08040c4:	0820104d 	j	a0804134 <queue_remove+0x108>
a08040c8:	00000000 	nop
a08040cc:	8fc20010 	lw	v0,16(s8)
a08040d0:	8c430004 	lw	v1,4(v0)
a08040d4:	8fc20014 	lw	v0,20(s8)
a08040d8:	1462000a 	bne	v1,v0,a0804104 <queue_remove+0xd8>
a08040dc:	00000000 	nop
a08040e0:	8fc20004 	lw	v0,4(s8)
a08040e4:	8c430140 	lw	v1,320(v0)
a08040e8:	8fc20010 	lw	v0,16(s8)
a08040ec:	ac430004 	sw	v1,4(v0)
a08040f0:	8fc20010 	lw	v0,16(s8)
a08040f4:	8c420004 	lw	v0,4(v0)
a08040f8:	ac400144 	sw	zero,324(v0)
a08040fc:	0820104d 	j	a0804134 <queue_remove+0x108>
a0804100:	00000000 	nop
a0804104:	8fc20004 	lw	v0,4(s8)
a0804108:	8c420140 	lw	v0,320(v0)
a080410c:	00401821 	move	v1,v0
a0804110:	8fc20004 	lw	v0,4(s8)
a0804114:	8c420144 	lw	v0,324(v0)
a0804118:	ac620144 	sw	v0,324(v1)
a080411c:	8fc20004 	lw	v0,4(s8)
a0804120:	8c420144 	lw	v0,324(v0)
a0804124:	00401821 	move	v1,v0
a0804128:	8fc20004 	lw	v0,4(s8)
a080412c:	8c420140 	lw	v0,320(v0)
a0804130:	ac620140 	sw	v0,320(v1)
a0804134:	8fc20004 	lw	v0,4(s8)
a0804138:	ac400140 	sw	zero,320(v0)
a080413c:	8fc20004 	lw	v0,4(s8)
a0804140:	ac400144 	sw	zero,324(v0)
a0804144:	8fc20000 	lw	v0,0(s8)
a0804148:	03c0e821 	move	sp,s8
a080414c:	8fbe000c 	lw	s8,12(sp)
a0804150:	27bd0010 	addiu	sp,sp,16
a0804154:	03e00008 	jr	ra
a0804158:	00000000 	nop
a080415c:	00000000 	nop

a0804160 <get_ticks>:
a0804160:	27bdfff8 	addiu	sp,sp,-8
a0804164:	afbe0004 	sw	s8,4(sp)
a0804168:	03a0f021 	move	s8,sp
a080416c:	3c02a080 	lui	v0,0xa080
a0804170:	8c427b10 	lw	v0,31504(v0)
a0804174:	03c0e821 	move	sp,s8
a0804178:	8fbe0004 	lw	s8,4(sp)
a080417c:	27bd0008 	addiu	sp,sp,8
a0804180:	03e00008 	jr	ra
a0804184:	00000000 	nop

a0804188 <get_timer>:
a0804188:	27bdfff8 	addiu	sp,sp,-8
a080418c:	afbe0004 	sw	s8,4(sp)
a0804190:	03a0f021 	move	s8,sp
a0804194:	3c02a080 	lui	v0,0xa080
a0804198:	8c437b10 	lw	v1,31504(v0)
a080419c:	3c026b5f 	lui	v0,0x6b5f
a08041a0:	3442ca6b 	ori	v0,v0,0xca6b
a08041a4:	00620019 	multu	v1,v0
a08041a8:	00001010 	mfhi	v0
a08041ac:	00021582 	srl	v0,v0,0x16
a08041b0:	03c0e821 	move	sp,s8
a08041b4:	8fbe0004 	lw	s8,4(sp)
a08041b8:	27bd0008 	addiu	sp,sp,8
a08041bc:	03e00008 	jr	ra
a08041c0:	00000000 	nop

a08041c4 <latency>:
a08041c4:	27bdffe0 	addiu	sp,sp,-32
a08041c8:	afbf001c 	sw	ra,28(sp)
a08041cc:	afbe0018 	sw	s8,24(sp)
a08041d0:	03a0f021 	move	s8,sp
a08041d4:	afc40020 	sw	a0,32(s8)
a08041d8:	0c201062 	jal	a0804188 <get_timer>
a08041dc:	00000000 	nop
a08041e0:	afc20010 	sw	v0,16(s8)
a08041e4:	0c201062 	jal	a0804188 <get_timer>
a08041e8:	00000000 	nop
a08041ec:	00401821 	move	v1,v0
a08041f0:	8fc20010 	lw	v0,16(s8)
a08041f4:	00621823 	subu	v1,v1,v0
a08041f8:	8fc20020 	lw	v0,32(s8)
a08041fc:	0062102b 	sltu	v0,v1,v0
a0804200:	1440fff8 	bnez	v0,a08041e4 <latency+0x20>
a0804204:	00000000 	nop
a0804208:	03c0e821 	move	sp,s8
a080420c:	8fbf001c 	lw	ra,28(sp)
a0804210:	8fbe0018 	lw	s8,24(sp)
a0804214:	27bd0020 	addiu	sp,sp,32
a0804218:	03e00008 	jr	ra
a080421c:	00000000 	nop

a0804220 <system_call_helper>:
a0804220:	27bdffe0 	addiu	sp,sp,-32
a0804224:	afbf001c 	sw	ra,28(sp)
a0804228:	afbe0018 	sw	s8,24(sp)
a080422c:	03a0f021 	move	s8,sp
a0804230:	afc40020 	sw	a0,32(s8)
a0804234:	afc50024 	sw	a1,36(s8)
a0804238:	afc60028 	sw	a2,40(s8)
a080423c:	afc7002c 	sw	a3,44(s8)
a0804240:	3c02a080 	lui	v0,0xa080
a0804244:	8c43684c 	lw	v1,26700(v0)
a0804248:	3c02a080 	lui	v0,0xa080
a080424c:	8c42684c 	lw	v0,26700(v0)
a0804250:	8c420130 	lw	v0,304(v0)
a0804254:	24420004 	addiu	v0,v0,4
a0804258:	ac620130 	sw	v0,304(v1)
a080425c:	8fc20020 	lw	v0,32(s8)
a0804260:	3c03a080 	lui	v1,0xa080
a0804264:	00022080 	sll	a0,v0,0x2
a0804268:	24627b20 	addiu	v0,v1,31520
a080426c:	00821021 	addu	v0,a0,v0
a0804270:	8c420000 	lw	v0,0(v0)
a0804274:	8fc40024 	lw	a0,36(s8)
a0804278:	8fc50028 	lw	a1,40(s8)
a080427c:	8fc6002c 	lw	a2,44(s8)
a0804280:	0040f809 	jalr	v0
a0804284:	00000000 	nop
a0804288:	afc20010 	sw	v0,16(s8)
a080428c:	3c02a080 	lui	v0,0xa080
a0804290:	8c43684c 	lw	v1,26700(v0)
a0804294:	8fc20010 	lw	v0,16(s8)
a0804298:	ac6200a4 	sw	v0,164(v1)
a080429c:	03c0e821 	move	sp,s8
a08042a0:	8fbf001c 	lw	ra,28(sp)
a08042a4:	8fbe0018 	lw	s8,24(sp)
a08042a8:	27bd0020 	addiu	sp,sp,32
a08042ac:	03e00008 	jr	ra
a08042b0:	00000000 	nop

a08042b4 <sys_sleep>:
a08042b4:	27bdffe8 	addiu	sp,sp,-24
a08042b8:	afbf0014 	sw	ra,20(sp)
a08042bc:	afbe0010 	sw	s8,16(sp)
a08042c0:	03a0f021 	move	s8,sp
a08042c4:	afc40018 	sw	a0,24(s8)
a08042c8:	8fc20018 	lw	v0,24(s8)
a08042cc:	24040002 	li	a0,2
a08042d0:	00402821 	move	a1,v0
a08042d4:	00003021 	move	a2,zero
a08042d8:	00003821 	move	a3,zero
a08042dc:	0c200290 	jal	a0800a40 <invoke_syscall>
a08042e0:	00000000 	nop
a08042e4:	03c0e821 	move	sp,s8
a08042e8:	8fbf0014 	lw	ra,20(sp)
a08042ec:	8fbe0010 	lw	s8,16(sp)
a08042f0:	27bd0018 	addiu	sp,sp,24
a08042f4:	03e00008 	jr	ra
a08042f8:	00000000 	nop

a08042fc <sys_block>:
a08042fc:	27bdffe8 	addiu	sp,sp,-24
a0804300:	afbf0014 	sw	ra,20(sp)
a0804304:	afbe0010 	sw	s8,16(sp)
a0804308:	03a0f021 	move	s8,sp
a080430c:	afc40018 	sw	a0,24(s8)
a0804310:	8fc20018 	lw	v0,24(s8)
a0804314:	2404000a 	li	a0,10
a0804318:	00402821 	move	a1,v0
a080431c:	00003021 	move	a2,zero
a0804320:	00003821 	move	a3,zero
a0804324:	0c200290 	jal	a0800a40 <invoke_syscall>
a0804328:	00000000 	nop
a080432c:	03c0e821 	move	sp,s8
a0804330:	8fbf0014 	lw	ra,20(sp)
a0804334:	8fbe0010 	lw	s8,16(sp)
a0804338:	27bd0018 	addiu	sp,sp,24
a080433c:	03e00008 	jr	ra
a0804340:	00000000 	nop

a0804344 <sys_unblock_one>:
a0804344:	27bdffe8 	addiu	sp,sp,-24
a0804348:	afbf0014 	sw	ra,20(sp)
a080434c:	afbe0010 	sw	s8,16(sp)
a0804350:	03a0f021 	move	s8,sp
a0804354:	afc40018 	sw	a0,24(s8)
a0804358:	8fc20018 	lw	v0,24(s8)
a080435c:	2404000b 	li	a0,11
a0804360:	00402821 	move	a1,v0
a0804364:	00003021 	move	a2,zero
a0804368:	00003821 	move	a3,zero
a080436c:	0c200290 	jal	a0800a40 <invoke_syscall>
a0804370:	00000000 	nop
a0804374:	03c0e821 	move	sp,s8
a0804378:	8fbf0014 	lw	ra,20(sp)
a080437c:	8fbe0010 	lw	s8,16(sp)
a0804380:	27bd0018 	addiu	sp,sp,24
a0804384:	03e00008 	jr	ra
a0804388:	00000000 	nop

a080438c <sys_unblock_all>:
a080438c:	27bdffe8 	addiu	sp,sp,-24
a0804390:	afbf0014 	sw	ra,20(sp)
a0804394:	afbe0010 	sw	s8,16(sp)
a0804398:	03a0f021 	move	s8,sp
a080439c:	afc40018 	sw	a0,24(s8)
a08043a0:	8fc20018 	lw	v0,24(s8)
a08043a4:	2404000c 	li	a0,12
a08043a8:	00402821 	move	a1,v0
a08043ac:	00003021 	move	a2,zero
a08043b0:	00003821 	move	a3,zero
a08043b4:	0c200290 	jal	a0800a40 <invoke_syscall>
a08043b8:	00000000 	nop
a08043bc:	03c0e821 	move	sp,s8
a08043c0:	8fbf0014 	lw	ra,20(sp)
a08043c4:	8fbe0010 	lw	s8,16(sp)
a08043c8:	27bd0018 	addiu	sp,sp,24
a08043cc:	03e00008 	jr	ra
a08043d0:	00000000 	nop

a08043d4 <sys_write>:
a08043d4:	27bdffe8 	addiu	sp,sp,-24
a08043d8:	afbf0014 	sw	ra,20(sp)
a08043dc:	afbe0010 	sw	s8,16(sp)
a08043e0:	03a0f021 	move	s8,sp
a08043e4:	afc40018 	sw	a0,24(s8)
a08043e8:	8fc20018 	lw	v0,24(s8)
a08043ec:	24040014 	li	a0,20
a08043f0:	00402821 	move	a1,v0
a08043f4:	00003021 	move	a2,zero
a08043f8:	00003821 	move	a3,zero
a08043fc:	0c200290 	jal	a0800a40 <invoke_syscall>
a0804400:	00000000 	nop
a0804404:	03c0e821 	move	sp,s8
a0804408:	8fbf0014 	lw	ra,20(sp)
a080440c:	8fbe0010 	lw	s8,16(sp)
a0804410:	27bd0018 	addiu	sp,sp,24
a0804414:	03e00008 	jr	ra
a0804418:	00000000 	nop

a080441c <sys_reflush>:
a080441c:	27bdffe8 	addiu	sp,sp,-24
a0804420:	afbf0014 	sw	ra,20(sp)
a0804424:	afbe0010 	sw	s8,16(sp)
a0804428:	03a0f021 	move	s8,sp
a080442c:	24040017 	li	a0,23
a0804430:	00002821 	move	a1,zero
a0804434:	00003021 	move	a2,zero
a0804438:	00003821 	move	a3,zero
a080443c:	0c200290 	jal	a0800a40 <invoke_syscall>
a0804440:	00000000 	nop
a0804444:	03c0e821 	move	sp,s8
a0804448:	8fbf0014 	lw	ra,20(sp)
a080444c:	8fbe0010 	lw	s8,16(sp)
a0804450:	27bd0018 	addiu	sp,sp,24
a0804454:	03e00008 	jr	ra
a0804458:	00000000 	nop

a080445c <sys_move_cursor>:
a080445c:	27bdffe8 	addiu	sp,sp,-24
a0804460:	afbf0014 	sw	ra,20(sp)
a0804464:	afbe0010 	sw	s8,16(sp)
a0804468:	03a0f021 	move	s8,sp
a080446c:	afc40018 	sw	a0,24(s8)
a0804470:	afc5001c 	sw	a1,28(s8)
a0804474:	24040016 	li	a0,22
a0804478:	8fc50018 	lw	a1,24(s8)
a080447c:	8fc6001c 	lw	a2,28(s8)
a0804480:	00003821 	move	a3,zero
a0804484:	0c200290 	jal	a0800a40 <invoke_syscall>
a0804488:	00000000 	nop
a080448c:	03c0e821 	move	sp,s8
a0804490:	8fbf0014 	lw	ra,20(sp)
a0804494:	8fbe0010 	lw	s8,16(sp)
a0804498:	27bd0018 	addiu	sp,sp,24
a080449c:	03e00008 	jr	ra
a08044a0:	00000000 	nop

a08044a4 <mutex_lock_init>:
a08044a4:	27bdffe8 	addiu	sp,sp,-24
a08044a8:	afbf0014 	sw	ra,20(sp)
a08044ac:	afbe0010 	sw	s8,16(sp)
a08044b0:	03a0f021 	move	s8,sp
a08044b4:	afc40018 	sw	a0,24(s8)
a08044b8:	8fc20018 	lw	v0,24(s8)
a08044bc:	2404001e 	li	a0,30
a08044c0:	00402821 	move	a1,v0
a08044c4:	00003021 	move	a2,zero
a08044c8:	00003821 	move	a3,zero
a08044cc:	0c200290 	jal	a0800a40 <invoke_syscall>
a08044d0:	00000000 	nop
a08044d4:	03c0e821 	move	sp,s8
a08044d8:	8fbf0014 	lw	ra,20(sp)
a08044dc:	8fbe0010 	lw	s8,16(sp)
a08044e0:	27bd0018 	addiu	sp,sp,24
a08044e4:	03e00008 	jr	ra
a08044e8:	00000000 	nop

a08044ec <mutex_lock_acquire>:
a08044ec:	27bdffe8 	addiu	sp,sp,-24
a08044f0:	afbf0014 	sw	ra,20(sp)
a08044f4:	afbe0010 	sw	s8,16(sp)
a08044f8:	03a0f021 	move	s8,sp
a08044fc:	afc40018 	sw	a0,24(s8)
a0804500:	8fc20018 	lw	v0,24(s8)
a0804504:	2404001f 	li	a0,31
a0804508:	00402821 	move	a1,v0
a080450c:	00003021 	move	a2,zero
a0804510:	00003821 	move	a3,zero
a0804514:	0c200290 	jal	a0800a40 <invoke_syscall>
a0804518:	00000000 	nop
a080451c:	03c0e821 	move	sp,s8
a0804520:	8fbf0014 	lw	ra,20(sp)
a0804524:	8fbe0010 	lw	s8,16(sp)
a0804528:	27bd0018 	addiu	sp,sp,24
a080452c:	03e00008 	jr	ra
a0804530:	00000000 	nop

a0804534 <mutex_lock_release>:
a0804534:	27bdffe8 	addiu	sp,sp,-24
a0804538:	afbf0014 	sw	ra,20(sp)
a080453c:	afbe0010 	sw	s8,16(sp)
a0804540:	03a0f021 	move	s8,sp
a0804544:	afc40018 	sw	a0,24(s8)
a0804548:	8fc20018 	lw	v0,24(s8)
a080454c:	24040020 	li	a0,32
a0804550:	00402821 	move	a1,v0
a0804554:	00003021 	move	a2,zero
a0804558:	00003821 	move	a3,zero
a080455c:	0c200290 	jal	a0800a40 <invoke_syscall>
a0804560:	00000000 	nop
a0804564:	03c0e821 	move	sp,s8
a0804568:	8fbf0014 	lw	ra,20(sp)
a080456c:	8fbe0010 	lw	s8,16(sp)
a0804570:	27bd0018 	addiu	sp,sp,24
a0804574:	03e00008 	jr	ra
a0804578:	00000000 	nop

a080457c <sys_ps>:
a080457c:	27bdffe8 	addiu	sp,sp,-24
a0804580:	afbf0014 	sw	ra,20(sp)
a0804584:	afbe0010 	sw	s8,16(sp)
a0804588:	03a0f021 	move	s8,sp
a080458c:	24040003 	li	a0,3
a0804590:	00002821 	move	a1,zero
a0804594:	00003021 	move	a2,zero
a0804598:	00003821 	move	a3,zero
a080459c:	0c200290 	jal	a0800a40 <invoke_syscall>
a08045a0:	00000000 	nop
a08045a4:	03c0e821 	move	sp,s8
a08045a8:	8fbf0014 	lw	ra,20(sp)
a08045ac:	8fbe0010 	lw	s8,16(sp)
a08045b0:	27bd0018 	addiu	sp,sp,24
a08045b4:	03e00008 	jr	ra
a08045b8:	00000000 	nop

a08045bc <sys_spawn>:
a08045bc:	27bdffe8 	addiu	sp,sp,-24
a08045c0:	afbf0014 	sw	ra,20(sp)
a08045c4:	afbe0010 	sw	s8,16(sp)
a08045c8:	03a0f021 	move	s8,sp
a08045cc:	afc40018 	sw	a0,24(s8)
a08045d0:	8fc20018 	lw	v0,24(s8)
a08045d4:	24040005 	li	a0,5
a08045d8:	00402821 	move	a1,v0
a08045dc:	00003021 	move	a2,zero
a08045e0:	00003821 	move	a3,zero
a08045e4:	0c200290 	jal	a0800a40 <invoke_syscall>
a08045e8:	00000000 	nop
a08045ec:	03c0e821 	move	sp,s8
a08045f0:	8fbf0014 	lw	ra,20(sp)
a08045f4:	8fbe0010 	lw	s8,16(sp)
a08045f8:	27bd0018 	addiu	sp,sp,24
a08045fc:	03e00008 	jr	ra
a0804600:	00000000 	nop

a0804604 <sys_kill>:
a0804604:	27bdffe8 	addiu	sp,sp,-24
a0804608:	afbf0014 	sw	ra,20(sp)
a080460c:	afbe0010 	sw	s8,16(sp)
a0804610:	03a0f021 	move	s8,sp
a0804614:	afc40018 	sw	a0,24(s8)
a0804618:	24040006 	li	a0,6
a080461c:	8fc50018 	lw	a1,24(s8)
a0804620:	00003021 	move	a2,zero
a0804624:	00003821 	move	a3,zero
a0804628:	0c200290 	jal	a0800a40 <invoke_syscall>
a080462c:	00000000 	nop
a0804630:	03c0e821 	move	sp,s8
a0804634:	8fbf0014 	lw	ra,20(sp)
a0804638:	8fbe0010 	lw	s8,16(sp)
a080463c:	27bd0018 	addiu	sp,sp,24
a0804640:	03e00008 	jr	ra
a0804644:	00000000 	nop

a0804648 <sys_exit>:
a0804648:	27bdffe8 	addiu	sp,sp,-24
a080464c:	afbf0014 	sw	ra,20(sp)
a0804650:	afbe0010 	sw	s8,16(sp)
a0804654:	03a0f021 	move	s8,sp
a0804658:	24040007 	li	a0,7
a080465c:	00002821 	move	a1,zero
a0804660:	00003021 	move	a2,zero
a0804664:	00003821 	move	a3,zero
a0804668:	0c200290 	jal	a0800a40 <invoke_syscall>
a080466c:	00000000 	nop
a0804670:	03c0e821 	move	sp,s8
a0804674:	8fbf0014 	lw	ra,20(sp)
a0804678:	8fbe0010 	lw	s8,16(sp)
a080467c:	27bd0018 	addiu	sp,sp,24
a0804680:	03e00008 	jr	ra
a0804684:	00000000 	nop

a0804688 <sys_waitpid>:
a0804688:	27bdffe8 	addiu	sp,sp,-24
a080468c:	afbf0014 	sw	ra,20(sp)
a0804690:	afbe0010 	sw	s8,16(sp)
a0804694:	03a0f021 	move	s8,sp
a0804698:	afc40018 	sw	a0,24(s8)
a080469c:	24040008 	li	a0,8
a08046a0:	8fc50018 	lw	a1,24(s8)
a08046a4:	00003021 	move	a2,zero
a08046a8:	00003821 	move	a3,zero
a08046ac:	0c200290 	jal	a0800a40 <invoke_syscall>
a08046b0:	00000000 	nop
a08046b4:	03c0e821 	move	sp,s8
a08046b8:	8fbf0014 	lw	ra,20(sp)
a08046bc:	8fbe0010 	lw	s8,16(sp)
a08046c0:	27bd0018 	addiu	sp,sp,24
a08046c4:	03e00008 	jr	ra
a08046c8:	00000000 	nop

a08046cc <sys_getpid>:
a08046cc:	27bdffe0 	addiu	sp,sp,-32
a08046d0:	afbf001c 	sw	ra,28(sp)
a08046d4:	afbe0018 	sw	s8,24(sp)
a08046d8:	03a0f021 	move	s8,sp
a08046dc:	24040009 	li	a0,9
a08046e0:	00002821 	move	a1,zero
a08046e4:	00003021 	move	a2,zero
a08046e8:	00003821 	move	a3,zero
a08046ec:	0c200290 	jal	a0800a40 <invoke_syscall>
a08046f0:	00000000 	nop
a08046f4:	03c0e821 	move	sp,s8
a08046f8:	8fbf001c 	lw	ra,28(sp)
a08046fc:	8fbe0018 	lw	s8,24(sp)
a0804700:	27bd0020 	addiu	sp,sp,32
a0804704:	03e00008 	jr	ra
a0804708:	00000000 	nop

a080470c <barrier_init>:
a080470c:	27bdffe8 	addiu	sp,sp,-24
a0804710:	afbf0014 	sw	ra,20(sp)
a0804714:	afbe0010 	sw	s8,16(sp)
a0804718:	03a0f021 	move	s8,sp
a080471c:	afc40018 	sw	a0,24(s8)
a0804720:	afc5001c 	sw	a1,28(s8)
a0804724:	8fc20018 	lw	v0,24(s8)
a0804728:	2404000d 	li	a0,13
a080472c:	00402821 	move	a1,v0
a0804730:	8fc6001c 	lw	a2,28(s8)
a0804734:	00003821 	move	a3,zero
a0804738:	0c200290 	jal	a0800a40 <invoke_syscall>
a080473c:	00000000 	nop
a0804740:	03c0e821 	move	sp,s8
a0804744:	8fbf0014 	lw	ra,20(sp)
a0804748:	8fbe0010 	lw	s8,16(sp)
a080474c:	27bd0018 	addiu	sp,sp,24
a0804750:	03e00008 	jr	ra
a0804754:	00000000 	nop

a0804758 <barrier_wait>:
a0804758:	27bdffe8 	addiu	sp,sp,-24
a080475c:	afbf0014 	sw	ra,20(sp)
a0804760:	afbe0010 	sw	s8,16(sp)
a0804764:	03a0f021 	move	s8,sp
a0804768:	afc40018 	sw	a0,24(s8)
a080476c:	8fc20018 	lw	v0,24(s8)
a0804770:	2404000e 	li	a0,14
a0804774:	00402821 	move	a1,v0
a0804778:	00003021 	move	a2,zero
a080477c:	00003821 	move	a3,zero
a0804780:	0c200290 	jal	a0800a40 <invoke_syscall>
a0804784:	00000000 	nop
a0804788:	03c0e821 	move	sp,s8
a080478c:	8fbf0014 	lw	ra,20(sp)
a0804790:	8fbe0010 	lw	s8,16(sp)
a0804794:	27bd0018 	addiu	sp,sp,24
a0804798:	03e00008 	jr	ra
a080479c:	00000000 	nop

a08047a0 <semaphore_init>:
a08047a0:	27bdffe8 	addiu	sp,sp,-24
a08047a4:	afbf0014 	sw	ra,20(sp)
a08047a8:	afbe0010 	sw	s8,16(sp)
a08047ac:	03a0f021 	move	s8,sp
a08047b0:	afc40018 	sw	a0,24(s8)
a08047b4:	afc5001c 	sw	a1,28(s8)
a08047b8:	8fc20018 	lw	v0,24(s8)
a08047bc:	2404000f 	li	a0,15
a08047c0:	00402821 	move	a1,v0
a08047c4:	8fc6001c 	lw	a2,28(s8)
a08047c8:	00003821 	move	a3,zero
a08047cc:	0c200290 	jal	a0800a40 <invoke_syscall>
a08047d0:	00000000 	nop
a08047d4:	03c0e821 	move	sp,s8
a08047d8:	8fbf0014 	lw	ra,20(sp)
a08047dc:	8fbe0010 	lw	s8,16(sp)
a08047e0:	27bd0018 	addiu	sp,sp,24
a08047e4:	03e00008 	jr	ra
a08047e8:	00000000 	nop

a08047ec <semaphore_up>:
a08047ec:	27bdffe8 	addiu	sp,sp,-24
a08047f0:	afbf0014 	sw	ra,20(sp)
a08047f4:	afbe0010 	sw	s8,16(sp)
a08047f8:	03a0f021 	move	s8,sp
a08047fc:	afc40018 	sw	a0,24(s8)
a0804800:	8fc20018 	lw	v0,24(s8)
a0804804:	24040010 	li	a0,16
a0804808:	00402821 	move	a1,v0
a080480c:	00003021 	move	a2,zero
a0804810:	00003821 	move	a3,zero
a0804814:	0c200290 	jal	a0800a40 <invoke_syscall>
a0804818:	00000000 	nop
a080481c:	03c0e821 	move	sp,s8
a0804820:	8fbf0014 	lw	ra,20(sp)
a0804824:	8fbe0010 	lw	s8,16(sp)
a0804828:	27bd0018 	addiu	sp,sp,24
a080482c:	03e00008 	jr	ra
a0804830:	00000000 	nop

a0804834 <semaphore_down>:
a0804834:	27bdffe8 	addiu	sp,sp,-24
a0804838:	afbf0014 	sw	ra,20(sp)
a080483c:	afbe0010 	sw	s8,16(sp)
a0804840:	03a0f021 	move	s8,sp
a0804844:	afc40018 	sw	a0,24(s8)
a0804848:	8fc20018 	lw	v0,24(s8)
a080484c:	24040011 	li	a0,17
a0804850:	00402821 	move	a1,v0
a0804854:	00003021 	move	a2,zero
a0804858:	00003821 	move	a3,zero
a080485c:	0c200290 	jal	a0800a40 <invoke_syscall>
a0804860:	00000000 	nop
a0804864:	03c0e821 	move	sp,s8
a0804868:	8fbf0014 	lw	ra,20(sp)
a080486c:	8fbe0010 	lw	s8,16(sp)
a0804870:	27bd0018 	addiu	sp,sp,24
a0804874:	03e00008 	jr	ra
a0804878:	00000000 	nop

a080487c <condition_init>:
a080487c:	27bdffe8 	addiu	sp,sp,-24
a0804880:	afbf0014 	sw	ra,20(sp)
a0804884:	afbe0010 	sw	s8,16(sp)
a0804888:	03a0f021 	move	s8,sp
a080488c:	afc40018 	sw	a0,24(s8)
a0804890:	8fc20018 	lw	v0,24(s8)
a0804894:	24040012 	li	a0,18
a0804898:	00402821 	move	a1,v0
a080489c:	00003021 	move	a2,zero
a08048a0:	00003821 	move	a3,zero
a08048a4:	0c200290 	jal	a0800a40 <invoke_syscall>
a08048a8:	00000000 	nop
a08048ac:	03c0e821 	move	sp,s8
a08048b0:	8fbf0014 	lw	ra,20(sp)
a08048b4:	8fbe0010 	lw	s8,16(sp)
a08048b8:	27bd0018 	addiu	sp,sp,24
a08048bc:	03e00008 	jr	ra
a08048c0:	00000000 	nop

a08048c4 <condition_wait>:
a08048c4:	27bdffe8 	addiu	sp,sp,-24
a08048c8:	afbf0014 	sw	ra,20(sp)
a08048cc:	afbe0010 	sw	s8,16(sp)
a08048d0:	03a0f021 	move	s8,sp
a08048d4:	afc40018 	sw	a0,24(s8)
a08048d8:	afc5001c 	sw	a1,28(s8)
a08048dc:	8fc20018 	lw	v0,24(s8)
a08048e0:	8fc3001c 	lw	v1,28(s8)
a08048e4:	24040013 	li	a0,19
a08048e8:	00402821 	move	a1,v0
a08048ec:	00603021 	move	a2,v1
a08048f0:	00003821 	move	a3,zero
a08048f4:	0c200290 	jal	a0800a40 <invoke_syscall>
a08048f8:	00000000 	nop
a08048fc:	03c0e821 	move	sp,s8
a0804900:	8fbf0014 	lw	ra,20(sp)
a0804904:	8fbe0010 	lw	s8,16(sp)
a0804908:	27bd0018 	addiu	sp,sp,24
a080490c:	03e00008 	jr	ra
a0804910:	00000000 	nop

a0804914 <condition_signal>:
a0804914:	27bdffe8 	addiu	sp,sp,-24
a0804918:	afbf0014 	sw	ra,20(sp)
a080491c:	afbe0010 	sw	s8,16(sp)
a0804920:	03a0f021 	move	s8,sp
a0804924:	afc40018 	sw	a0,24(s8)
a0804928:	8fc20018 	lw	v0,24(s8)
a080492c:	24040018 	li	a0,24
a0804930:	00402821 	move	a1,v0
a0804934:	00003021 	move	a2,zero
a0804938:	00003821 	move	a3,zero
a080493c:	0c200290 	jal	a0800a40 <invoke_syscall>
a0804940:	00000000 	nop
a0804944:	03c0e821 	move	sp,s8
a0804948:	8fbf0014 	lw	ra,20(sp)
a080494c:	8fbe0010 	lw	s8,16(sp)
a0804950:	27bd0018 	addiu	sp,sp,24
a0804954:	03e00008 	jr	ra
a0804958:	00000000 	nop

a080495c <condition_broadcast>:
a080495c:	27bdffe8 	addiu	sp,sp,-24
a0804960:	afbf0014 	sw	ra,20(sp)
a0804964:	afbe0010 	sw	s8,16(sp)
a0804968:	03a0f021 	move	s8,sp
a080496c:	afc40018 	sw	a0,24(s8)
a0804970:	8fc20018 	lw	v0,24(s8)
a0804974:	24040019 	li	a0,25
a0804978:	00402821 	move	a1,v0
a080497c:	00003021 	move	a2,zero
a0804980:	00003821 	move	a3,zero
a0804984:	0c200290 	jal	a0800a40 <invoke_syscall>
a0804988:	00000000 	nop
a080498c:	03c0e821 	move	sp,s8
a0804990:	8fbf0014 	lw	ra,20(sp)
a0804994:	8fbe0010 	lw	s8,16(sp)
a0804998:	27bd0018 	addiu	sp,sp,24
a080499c:	03e00008 	jr	ra
a08049a0:	00000000 	nop

a08049a4 <sys_clear>:
a08049a4:	27bdffe8 	addiu	sp,sp,-24
a08049a8:	afbf0014 	sw	ra,20(sp)
a08049ac:	afbe0010 	sw	s8,16(sp)
a08049b0:	03a0f021 	move	s8,sp
a08049b4:	24040004 	li	a0,4
a08049b8:	00002821 	move	a1,zero
a08049bc:	00003021 	move	a2,zero
a08049c0:	00003821 	move	a3,zero
a08049c4:	0c200290 	jal	a0800a40 <invoke_syscall>
a08049c8:	00000000 	nop
a08049cc:	03c0e821 	move	sp,s8
a08049d0:	8fbf0014 	lw	ra,20(sp)
a08049d4:	8fbe0010 	lw	s8,16(sp)
a08049d8:	27bd0018 	addiu	sp,sp,24
a08049dc:	03e00008 	jr	ra
a08049e0:	00000000 	nop
	...

a08049f0 <strlen>:
a08049f0:	27bdfff0 	addiu	sp,sp,-16
a08049f4:	afbe000c 	sw	s8,12(sp)
a08049f8:	03a0f021 	move	s8,sp
a08049fc:	afc40010 	sw	a0,16(s8)
a0804a00:	afc00000 	sw	zero,0(s8)
a0804a04:	08201286 	j	a0804a18 <strlen+0x28>
a0804a08:	00000000 	nop
a0804a0c:	8fc20000 	lw	v0,0(s8)
a0804a10:	24420001 	addiu	v0,v0,1
a0804a14:	afc20000 	sw	v0,0(s8)
a0804a18:	8fc30000 	lw	v1,0(s8)
a0804a1c:	8fc20010 	lw	v0,16(s8)
a0804a20:	00431021 	addu	v0,v0,v1
a0804a24:	80420000 	lb	v0,0(v0)
a0804a28:	1440fff8 	bnez	v0,a0804a0c <strlen+0x1c>
a0804a2c:	00000000 	nop
a0804a30:	8fc20000 	lw	v0,0(s8)
a0804a34:	03c0e821 	move	sp,s8
a0804a38:	8fbe000c 	lw	s8,12(sp)
a0804a3c:	27bd0010 	addiu	sp,sp,16
a0804a40:	03e00008 	jr	ra
a0804a44:	00000000 	nop

a0804a48 <memcpy>:
a0804a48:	27bdfff8 	addiu	sp,sp,-8
a0804a4c:	afbe0004 	sw	s8,4(sp)
a0804a50:	03a0f021 	move	s8,sp
a0804a54:	afc40008 	sw	a0,8(s8)
a0804a58:	afc5000c 	sw	a1,12(s8)
a0804a5c:	afc60010 	sw	a2,16(s8)
a0804a60:	082012a7 	j	a0804a9c <memcpy+0x54>
a0804a64:	00000000 	nop
a0804a68:	8fc2000c 	lw	v0,12(s8)
a0804a6c:	90430000 	lbu	v1,0(v0)
a0804a70:	8fc20008 	lw	v0,8(s8)
a0804a74:	a0430000 	sb	v1,0(v0)
a0804a78:	8fc20008 	lw	v0,8(s8)
a0804a7c:	24420001 	addiu	v0,v0,1
a0804a80:	afc20008 	sw	v0,8(s8)
a0804a84:	8fc2000c 	lw	v0,12(s8)
a0804a88:	24420001 	addiu	v0,v0,1
a0804a8c:	afc2000c 	sw	v0,12(s8)
a0804a90:	8fc20010 	lw	v0,16(s8)
a0804a94:	2442ffff 	addiu	v0,v0,-1
a0804a98:	afc20010 	sw	v0,16(s8)
a0804a9c:	8fc20010 	lw	v0,16(s8)
a0804aa0:	1440fff1 	bnez	v0,a0804a68 <memcpy+0x20>
a0804aa4:	00000000 	nop
a0804aa8:	03c0e821 	move	sp,s8
a0804aac:	8fbe0004 	lw	s8,4(sp)
a0804ab0:	27bd0008 	addiu	sp,sp,8
a0804ab4:	03e00008 	jr	ra
a0804ab8:	00000000 	nop

a0804abc <memset>:
a0804abc:	27bdfff0 	addiu	sp,sp,-16
a0804ac0:	afbe000c 	sw	s8,12(sp)
a0804ac4:	03a0f021 	move	s8,sp
a0804ac8:	afc40010 	sw	a0,16(s8)
a0804acc:	00a01021 	move	v0,a1
a0804ad0:	afc60018 	sw	a2,24(s8)
a0804ad4:	a3c20014 	sb	v0,20(s8)
a0804ad8:	8fc20010 	lw	v0,16(s8)
a0804adc:	afc20000 	sw	v0,0(s8)
a0804ae0:	082012c3 	j	a0804b0c <memset+0x50>
a0804ae4:	00000000 	nop
a0804ae8:	8fc30000 	lw	v1,0(s8)
a0804aec:	93c20014 	lbu	v0,20(s8)
a0804af0:	a0620000 	sb	v0,0(v1)
a0804af4:	8fc20000 	lw	v0,0(s8)
a0804af8:	24420001 	addiu	v0,v0,1
a0804afc:	afc20000 	sw	v0,0(s8)
a0804b00:	8fc20018 	lw	v0,24(s8)
a0804b04:	2442ffff 	addiu	v0,v0,-1
a0804b08:	afc20018 	sw	v0,24(s8)
a0804b0c:	8fc20018 	lw	v0,24(s8)
a0804b10:	1440fff5 	bnez	v0,a0804ae8 <memset+0x2c>
a0804b14:	00000000 	nop
a0804b18:	03c0e821 	move	sp,s8
a0804b1c:	8fbe000c 	lw	s8,12(sp)
a0804b20:	27bd0010 	addiu	sp,sp,16
a0804b24:	03e00008 	jr	ra
a0804b28:	00000000 	nop

a0804b2c <bzero>:
a0804b2c:	27bdffe8 	addiu	sp,sp,-24
a0804b30:	afbf0014 	sw	ra,20(sp)
a0804b34:	afbe0010 	sw	s8,16(sp)
a0804b38:	03a0f021 	move	s8,sp
a0804b3c:	afc40018 	sw	a0,24(s8)
a0804b40:	afc5001c 	sw	a1,28(s8)
a0804b44:	8fc40018 	lw	a0,24(s8)
a0804b48:	00002821 	move	a1,zero
a0804b4c:	8fc6001c 	lw	a2,28(s8)
a0804b50:	0c2012af 	jal	a0804abc <memset>
a0804b54:	00000000 	nop
a0804b58:	03c0e821 	move	sp,s8
a0804b5c:	8fbf0014 	lw	ra,20(sp)
a0804b60:	8fbe0010 	lw	s8,16(sp)
a0804b64:	27bd0018 	addiu	sp,sp,24
a0804b68:	03e00008 	jr	ra
a0804b6c:	00000000 	nop

a0804b70 <strcmp>:
a0804b70:	27bdfff8 	addiu	sp,sp,-8
a0804b74:	afbe0004 	sw	s8,4(sp)
a0804b78:	03a0f021 	move	s8,sp
a0804b7c:	afc40008 	sw	a0,8(s8)
a0804b80:	afc5000c 	sw	a1,12(s8)
a0804b84:	8fc20008 	lw	v0,8(s8)
a0804b88:	80420000 	lb	v0,0(v0)
a0804b8c:	10400014 	beqz	v0,a0804be0 <strcmp+0x70>
a0804b90:	00000000 	nop
a0804b94:	8fc2000c 	lw	v0,12(s8)
a0804b98:	80420000 	lb	v0,0(v0)
a0804b9c:	10400010 	beqz	v0,a0804be0 <strcmp+0x70>
a0804ba0:	00000000 	nop
a0804ba4:	8fc20008 	lw	v0,8(s8)
a0804ba8:	80430000 	lb	v1,0(v0)
a0804bac:	8fc2000c 	lw	v0,12(s8)
a0804bb0:	80420000 	lb	v0,0(v0)
a0804bb4:	00621026 	xor	v0,v1,v0
a0804bb8:	2c420001 	sltiu	v0,v0,1
a0804bbc:	304300ff 	andi	v1,v0,0xff
a0804bc0:	8fc20008 	lw	v0,8(s8)
a0804bc4:	24420001 	addiu	v0,v0,1
a0804bc8:	afc20008 	sw	v0,8(s8)
a0804bcc:	8fc2000c 	lw	v0,12(s8)
a0804bd0:	24420001 	addiu	v0,v0,1
a0804bd4:	afc2000c 	sw	v0,12(s8)
a0804bd8:	1460ffea 	bnez	v1,a0804b84 <strcmp+0x14>
a0804bdc:	00000000 	nop
a0804be0:	8fc20008 	lw	v0,8(s8)
a0804be4:	80420000 	lb	v0,0(v0)
a0804be8:	00401821 	move	v1,v0
a0804bec:	8fc2000c 	lw	v0,12(s8)
a0804bf0:	80420000 	lb	v0,0(v0)
a0804bf4:	00621023 	subu	v0,v1,v0
a0804bf8:	03c0e821 	move	sp,s8
a0804bfc:	8fbe0004 	lw	s8,4(sp)
a0804c00:	27bd0008 	addiu	sp,sp,8
a0804c04:	03e00008 	jr	ra
a0804c08:	00000000 	nop

a0804c0c <memcmp>:
a0804c0c:	27bdffe8 	addiu	sp,sp,-24
a0804c10:	afbe0014 	sw	s8,20(sp)
a0804c14:	03a0f021 	move	s8,sp
a0804c18:	afc40018 	sw	a0,24(s8)
a0804c1c:	afc5001c 	sw	a1,28(s8)
a0804c20:	afc60020 	sw	a2,32(s8)
a0804c24:	afc00000 	sw	zero,0(s8)
a0804c28:	0820132d 	j	a0804cb4 <memcmp+0xa8>
a0804c2c:	00000000 	nop
a0804c30:	8fc30000 	lw	v1,0(s8)
a0804c34:	8fc20018 	lw	v0,24(s8)
a0804c38:	00431021 	addu	v0,v0,v1
a0804c3c:	80440000 	lb	a0,0(v0)
a0804c40:	8fc30000 	lw	v1,0(s8)
a0804c44:	8fc2001c 	lw	v0,28(s8)
a0804c48:	00431021 	addu	v0,v0,v1
a0804c4c:	80420000 	lb	v0,0(v0)
a0804c50:	0044102a 	slt	v0,v0,a0
a0804c54:	10400005 	beqz	v0,a0804c6c <memcmp+0x60>
a0804c58:	00000000 	nop
a0804c5c:	24020001 	li	v0,1
a0804c60:	afc20008 	sw	v0,8(s8)
a0804c64:	08201333 	j	a0804ccc <memcmp+0xc0>
a0804c68:	00000000 	nop
a0804c6c:	8fc30000 	lw	v1,0(s8)
a0804c70:	8fc20018 	lw	v0,24(s8)
a0804c74:	00431021 	addu	v0,v0,v1
a0804c78:	80440000 	lb	a0,0(v0)
a0804c7c:	8fc30000 	lw	v1,0(s8)
a0804c80:	8fc2001c 	lw	v0,28(s8)
a0804c84:	00431021 	addu	v0,v0,v1
a0804c88:	80420000 	lb	v0,0(v0)
a0804c8c:	0082102a 	slt	v0,a0,v0
a0804c90:	10400005 	beqz	v0,a0804ca8 <memcmp+0x9c>
a0804c94:	00000000 	nop
a0804c98:	2402ffff 	li	v0,-1
a0804c9c:	afc20008 	sw	v0,8(s8)
a0804ca0:	08201333 	j	a0804ccc <memcmp+0xc0>
a0804ca4:	00000000 	nop
a0804ca8:	8fc20000 	lw	v0,0(s8)
a0804cac:	24420001 	addiu	v0,v0,1
a0804cb0:	afc20000 	sw	v0,0(s8)
a0804cb4:	8fc20000 	lw	v0,0(s8)
a0804cb8:	8fc30020 	lw	v1,32(s8)
a0804cbc:	0043102b 	sltu	v0,v0,v1
a0804cc0:	1440ffdb 	bnez	v0,a0804c30 <memcmp+0x24>
a0804cc4:	00000000 	nop
a0804cc8:	afc00008 	sw	zero,8(s8)
a0804ccc:	8fc20008 	lw	v0,8(s8)
a0804cd0:	03c0e821 	move	sp,s8
a0804cd4:	8fbe0014 	lw	s8,20(sp)
a0804cd8:	27bd0018 	addiu	sp,sp,24
a0804cdc:	03e00008 	jr	ra
a0804ce0:	00000000 	nop

a0804ce4 <strcpy>:
a0804ce4:	27bdffe0 	addiu	sp,sp,-32
a0804ce8:	afbf001c 	sw	ra,28(sp)
a0804cec:	afbe0018 	sw	s8,24(sp)
a0804cf0:	03a0f021 	move	s8,sp
a0804cf4:	afc40020 	sw	a0,32(s8)
a0804cf8:	afc50024 	sw	a1,36(s8)
a0804cfc:	8fc40024 	lw	a0,36(s8)
a0804d00:	0c20127c 	jal	a08049f0 <strlen>
a0804d04:	00000000 	nop
a0804d08:	afc20014 	sw	v0,20(s8)
a0804d0c:	afc00010 	sw	zero,16(s8)
a0804d10:	08201351 	j	a0804d44 <strcpy+0x60>
a0804d14:	00000000 	nop
a0804d18:	8fc30010 	lw	v1,16(s8)
a0804d1c:	8fc20020 	lw	v0,32(s8)
a0804d20:	00432021 	addu	a0,v0,v1
a0804d24:	8fc30010 	lw	v1,16(s8)
a0804d28:	8fc20024 	lw	v0,36(s8)
a0804d2c:	00431021 	addu	v0,v0,v1
a0804d30:	80420000 	lb	v0,0(v0)
a0804d34:	a0820000 	sb	v0,0(a0)
a0804d38:	8fc20010 	lw	v0,16(s8)
a0804d3c:	24420001 	addiu	v0,v0,1
a0804d40:	afc20010 	sw	v0,16(s8)
a0804d44:	8fc20010 	lw	v0,16(s8)
a0804d48:	8fc30014 	lw	v1,20(s8)
a0804d4c:	0043102a 	slt	v0,v0,v1
a0804d50:	1440fff1 	bnez	v0,a0804d18 <strcpy+0x34>
a0804d54:	00000000 	nop
a0804d58:	8fc20010 	lw	v0,16(s8)
a0804d5c:	8fc30020 	lw	v1,32(s8)
a0804d60:	00621021 	addu	v0,v1,v0
a0804d64:	a0400000 	sb	zero,0(v0)
a0804d68:	03c0e821 	move	sp,s8
a0804d6c:	8fbf001c 	lw	ra,28(sp)
a0804d70:	8fbe0018 	lw	s8,24(sp)
a0804d74:	27bd0020 	addiu	sp,sp,32
a0804d78:	03e00008 	jr	ra
a0804d7c:	00000000 	nop

a0804d80 <atoi>:
a0804d80:	27bdffd8 	addiu	sp,sp,-40
a0804d84:	afbf0024 	sw	ra,36(sp)
a0804d88:	afbe0020 	sw	s8,32(sp)
a0804d8c:	03a0f021 	move	s8,sp
a0804d90:	afc40028 	sw	a0,40(s8)
a0804d94:	8fc40028 	lw	a0,40(s8)
a0804d98:	0c20127c 	jal	a08049f0 <strlen>
a0804d9c:	00000000 	nop
a0804da0:	afc20018 	sw	v0,24(s8)
a0804da4:	afc00014 	sw	zero,20(s8)
a0804da8:	afc00010 	sw	zero,16(s8)
a0804dac:	0820137b 	j	a0804dec <atoi+0x6c>
a0804db0:	00000000 	nop
a0804db4:	8fc20014 	lw	v0,20(s8)
a0804db8:	00021840 	sll	v1,v0,0x1
a0804dbc:	00031080 	sll	v0,v1,0x2
a0804dc0:	00622021 	addu	a0,v1,v0
a0804dc4:	8fc30010 	lw	v1,16(s8)
a0804dc8:	8fc20028 	lw	v0,40(s8)
a0804dcc:	00431021 	addu	v0,v0,v1
a0804dd0:	80420000 	lb	v0,0(v0)
a0804dd4:	00821021 	addu	v0,a0,v0
a0804dd8:	2442ffd0 	addiu	v0,v0,-48
a0804ddc:	afc20014 	sw	v0,20(s8)
a0804de0:	8fc20010 	lw	v0,16(s8)
a0804de4:	24420001 	addiu	v0,v0,1
a0804de8:	afc20010 	sw	v0,16(s8)
a0804dec:	8fc20010 	lw	v0,16(s8)
a0804df0:	8fc30018 	lw	v1,24(s8)
a0804df4:	0043102a 	slt	v0,v0,v1
a0804df8:	1440ffee 	bnez	v0,a0804db4 <atoi+0x34>
a0804dfc:	00000000 	nop
a0804e00:	8fc20014 	lw	v0,20(s8)
a0804e04:	03c0e821 	move	sp,s8
a0804e08:	8fbf0024 	lw	ra,36(sp)
a0804e0c:	8fbe0020 	lw	s8,32(sp)
a0804e10:	27bd0028 	addiu	sp,sp,40
a0804e14:	03e00008 	jr	ra
a0804e18:	00000000 	nop

a0804e1c <hextoi>:
a0804e1c:	27bdffd8 	addiu	sp,sp,-40
a0804e20:	afbf0024 	sw	ra,36(sp)
a0804e24:	afbe0020 	sw	s8,32(sp)
a0804e28:	03a0f021 	move	s8,sp
a0804e2c:	afc40028 	sw	a0,40(s8)
a0804e30:	8fc40028 	lw	a0,40(s8)
a0804e34:	0c20127c 	jal	a08049f0 <strlen>
a0804e38:	00000000 	nop
a0804e3c:	afc20018 	sw	v0,24(s8)
a0804e40:	afc00014 	sw	zero,20(s8)
a0804e44:	afc00010 	sw	zero,16(s8)
a0804e48:	08201397 	j	a0804e5c <hextoi+0x40>
a0804e4c:	00000000 	nop
a0804e50:	8fc20010 	lw	v0,16(s8)
a0804e54:	24420001 	addiu	v0,v0,1
a0804e58:	afc20010 	sw	v0,16(s8)
a0804e5c:	8fc20010 	lw	v0,16(s8)
a0804e60:	8fc30018 	lw	v1,24(s8)
a0804e64:	0043102a 	slt	v0,v0,v1
a0804e68:	10400008 	beqz	v0,a0804e8c <hextoi+0x70>
a0804e6c:	00000000 	nop
a0804e70:	8fc30010 	lw	v1,16(s8)
a0804e74:	8fc20028 	lw	v0,40(s8)
a0804e78:	00431021 	addu	v0,v0,v1
a0804e7c:	80430000 	lb	v1,0(v0)
a0804e80:	24020078 	li	v0,120
a0804e84:	1462fff2 	bne	v1,v0,a0804e50 <hextoi+0x34>
a0804e88:	00000000 	nop
a0804e8c:	8fc20010 	lw	v0,16(s8)
a0804e90:	24420001 	addiu	v0,v0,1
a0804e94:	afc20010 	sw	v0,16(s8)
a0804e98:	082013b4 	j	a0804ed0 <hextoi+0xb4>
a0804e9c:	00000000 	nop
a0804ea0:	8fc20014 	lw	v0,20(s8)
a0804ea4:	00022100 	sll	a0,v0,0x4
a0804ea8:	8fc30010 	lw	v1,16(s8)
a0804eac:	8fc20028 	lw	v0,40(s8)
a0804eb0:	00431021 	addu	v0,v0,v1
a0804eb4:	80420000 	lb	v0,0(v0)
a0804eb8:	00821021 	addu	v0,a0,v0
a0804ebc:	2442ffd0 	addiu	v0,v0,-48
a0804ec0:	afc20014 	sw	v0,20(s8)
a0804ec4:	8fc20010 	lw	v0,16(s8)
a0804ec8:	24420001 	addiu	v0,v0,1
a0804ecc:	afc20010 	sw	v0,16(s8)
a0804ed0:	8fc20010 	lw	v0,16(s8)
a0804ed4:	8fc30018 	lw	v1,24(s8)
a0804ed8:	0043102a 	slt	v0,v0,v1
a0804edc:	1440fff0 	bnez	v0,a0804ea0 <hextoi+0x84>
a0804ee0:	00000000 	nop
a0804ee4:	8fc20014 	lw	v0,20(s8)
a0804ee8:	03c0e821 	move	sp,s8
a0804eec:	8fbf0024 	lw	ra,36(sp)
a0804ef0:	8fbe0020 	lw	s8,32(sp)
a0804ef4:	27bd0028 	addiu	sp,sp,40
a0804ef8:	03e00008 	jr	ra
a0804efc:	00000000 	nop

a0804f00 <mini_strlen>:
a0804f00:	27bdfff0 	addiu	sp,sp,-16
a0804f04:	afbe000c 	sw	s8,12(sp)
a0804f08:	03a0f021 	move	s8,sp
a0804f0c:	afc40010 	sw	a0,16(s8)
a0804f10:	afc00000 	sw	zero,0(s8)
a0804f14:	082013ca 	j	a0804f28 <mini_strlen+0x28>
a0804f18:	00000000 	nop
a0804f1c:	8fc20000 	lw	v0,0(s8)
a0804f20:	24420001 	addiu	v0,v0,1
a0804f24:	afc20000 	sw	v0,0(s8)
a0804f28:	8fc30010 	lw	v1,16(s8)
a0804f2c:	8fc20000 	lw	v0,0(s8)
a0804f30:	00621021 	addu	v0,v1,v0
a0804f34:	80420000 	lb	v0,0(v0)
a0804f38:	1440fff8 	bnez	v0,a0804f1c <mini_strlen+0x1c>
a0804f3c:	00000000 	nop
a0804f40:	8fc20000 	lw	v0,0(s8)
a0804f44:	03c0e821 	move	sp,s8
a0804f48:	8fbe000c 	lw	s8,12(sp)
a0804f4c:	27bd0010 	addiu	sp,sp,16
a0804f50:	03e00008 	jr	ra
a0804f54:	00000000 	nop

a0804f58 <mini_itoa>:
a0804f58:	27bdffc8 	addiu	sp,sp,-56
a0804f5c:	afbe0034 	sw	s8,52(sp)
a0804f60:	03a0f021 	move	s8,sp
a0804f64:	afc40038 	sw	a0,56(s8)
a0804f68:	afc5003c 	sw	a1,60(s8)
a0804f6c:	afc60040 	sw	a2,64(s8)
a0804f70:	afc70044 	sw	a3,68(s8)
a0804f74:	8fc20048 	lw	v0,72(s8)
a0804f78:	afc20014 	sw	v0,20(s8)
a0804f7c:	afc00010 	sw	zero,16(s8)
a0804f80:	8fc2003c 	lw	v0,60(s8)
a0804f84:	2c420011 	sltiu	v0,v0,17
a0804f88:	14400004 	bnez	v0,a0804f9c <mini_itoa+0x44>
a0804f8c:	00000000 	nop
a0804f90:	afc00020 	sw	zero,32(s8)
a0804f94:	08201470 	j	a08051c0 <mini_itoa+0x268>
a0804f98:	00000000 	nop
a0804f9c:	8fc20038 	lw	v0,56(s8)
a0804fa0:	04410009 	bgez	v0,a0804fc8 <mini_itoa+0x70>
a0804fa4:	00000000 	nop
a0804fa8:	8fc20044 	lw	v0,68(s8)
a0804fac:	14400006 	bnez	v0,a0804fc8 <mini_itoa+0x70>
a0804fb0:	00000000 	nop
a0804fb4:	24020001 	li	v0,1
a0804fb8:	afc20010 	sw	v0,16(s8)
a0804fbc:	8fc20038 	lw	v0,56(s8)
a0804fc0:	00021023 	negu	v0,v0
a0804fc4:	afc20038 	sw	v0,56(s8)
a0804fc8:	8fc30038 	lw	v1,56(s8)
a0804fcc:	8fc2003c 	lw	v0,60(s8)
a0804fd0:	0062001b 	divu	zero,v1,v0
a0804fd4:	004001f4 	teq	v0,zero,0x7
a0804fd8:	00001010 	mfhi	v0
a0804fdc:	afc20004 	sw	v0,4(s8)
a0804fe0:	8fc20004 	lw	v0,4(s8)
a0804fe4:	2842000a 	slti	v0,v0,10
a0804fe8:	1040000a 	beqz	v0,a0805014 <mini_itoa+0xbc>
a0804fec:	00000000 	nop
a0804ff0:	8fc20004 	lw	v0,4(s8)
a0804ff4:	304200ff 	andi	v0,v0,0xff
a0804ff8:	24420030 	addiu	v0,v0,48
a0804ffc:	304200ff 	andi	v0,v0,0xff
a0805000:	00021600 	sll	v0,v0,0x18
a0805004:	00021603 	sra	v0,v0,0x18
a0805008:	afc2001c 	sw	v0,28(s8)
a080500c:	08201418 	j	a0805060 <mini_itoa+0x108>
a0805010:	00000000 	nop
a0805014:	8fc20040 	lw	v0,64(s8)
a0805018:	10400005 	beqz	v0,a0805030 <mini_itoa+0xd8>
a080501c:	00000000 	nop
a0805020:	24020041 	li	v0,65
a0805024:	afc20018 	sw	v0,24(s8)
a0805028:	0820140e 	j	a0805038 <mini_itoa+0xe0>
a080502c:	00000000 	nop
a0805030:	24030061 	li	v1,97
a0805034:	afc30018 	sw	v1,24(s8)
a0805038:	8fc20004 	lw	v0,4(s8)
a080503c:	304200ff 	andi	v0,v0,0xff
a0805040:	8fc40018 	lw	a0,24(s8)
a0805044:	00821021 	addu	v0,a0,v0
a0805048:	304200ff 	andi	v0,v0,0xff
a080504c:	2442fff6 	addiu	v0,v0,-10
a0805050:	304200ff 	andi	v0,v0,0xff
a0805054:	00021600 	sll	v0,v0,0x18
a0805058:	00021603 	sra	v0,v0,0x18
a080505c:	afc2001c 	sw	v0,28(s8)
a0805060:	8fc20014 	lw	v0,20(s8)
a0805064:	8fc3001c 	lw	v1,28(s8)
a0805068:	a0430000 	sb	v1,0(v0)
a080506c:	8fc20014 	lw	v0,20(s8)
a0805070:	24420001 	addiu	v0,v0,1
a0805074:	afc20014 	sw	v0,20(s8)
a0805078:	8fc30038 	lw	v1,56(s8)
a080507c:	8fc2003c 	lw	v0,60(s8)
a0805080:	0062001b 	divu	zero,v1,v0
a0805084:	004001f4 	teq	v0,zero,0x7
a0805088:	00001012 	mflo	v0
a080508c:	afc20038 	sw	v0,56(s8)
a0805090:	8fc20038 	lw	v0,56(s8)
a0805094:	1c40ffcc 	bgtz	v0,a0804fc8 <mini_itoa+0x70>
a0805098:	00000000 	nop
a080509c:	8fc20014 	lw	v0,20(s8)
a08050a0:	8fc30048 	lw	v1,72(s8)
a08050a4:	00431023 	subu	v0,v0,v1
a08050a8:	afc2000c 	sw	v0,12(s8)
a08050ac:	08201436 	j	a08050d8 <mini_itoa+0x180>
a08050b0:	00000000 	nop
a08050b4:	8fc30014 	lw	v1,20(s8)
a08050b8:	24020030 	li	v0,48
a08050bc:	a0620000 	sb	v0,0(v1)
a08050c0:	8fc20014 	lw	v0,20(s8)
a08050c4:	24420001 	addiu	v0,v0,1
a08050c8:	afc20014 	sw	v0,20(s8)
a08050cc:	8fc2000c 	lw	v0,12(s8)
a08050d0:	24420001 	addiu	v0,v0,1
a08050d4:	afc2000c 	sw	v0,12(s8)
a08050d8:	8fc2000c 	lw	v0,12(s8)
a08050dc:	8fc3004c 	lw	v1,76(s8)
a08050e0:	0043102b 	sltu	v0,v0,v1
a08050e4:	1440fff3 	bnez	v0,a08050b4 <mini_itoa+0x15c>
a08050e8:	00000000 	nop
a08050ec:	8fc20010 	lw	v0,16(s8)
a08050f0:	10400007 	beqz	v0,a0805110 <mini_itoa+0x1b8>
a08050f4:	00000000 	nop
a08050f8:	8fc30014 	lw	v1,20(s8)
a08050fc:	2402002d 	li	v0,45
a0805100:	a0620000 	sb	v0,0(v1)
a0805104:	8fc20014 	lw	v0,20(s8)
a0805108:	24420001 	addiu	v0,v0,1
a080510c:	afc20014 	sw	v0,20(s8)
a0805110:	8fc20014 	lw	v0,20(s8)
a0805114:	a0400000 	sb	zero,0(v0)
a0805118:	8fc30014 	lw	v1,20(s8)
a080511c:	8fc20048 	lw	v0,72(s8)
a0805120:	00621023 	subu	v0,v1,v0
a0805124:	afc20008 	sw	v0,8(s8)
a0805128:	afc0000c 	sw	zero,12(s8)
a080512c:	08201468 	j	a08051a0 <mini_itoa+0x248>
a0805130:	00000000 	nop
a0805134:	8fc30048 	lw	v1,72(s8)
a0805138:	8fc2000c 	lw	v0,12(s8)
a080513c:	00621021 	addu	v0,v1,v0
a0805140:	90420000 	lbu	v0,0(v0)
a0805144:	a3c20000 	sb	v0,0(s8)
a0805148:	8fc30048 	lw	v1,72(s8)
a080514c:	8fc2000c 	lw	v0,12(s8)
a0805150:	00622021 	addu	a0,v1,v0
a0805154:	8fc30008 	lw	v1,8(s8)
a0805158:	8fc2000c 	lw	v0,12(s8)
a080515c:	00621023 	subu	v0,v1,v0
a0805160:	2443ffff 	addiu	v1,v0,-1
a0805164:	8fc20048 	lw	v0,72(s8)
a0805168:	00431021 	addu	v0,v0,v1
a080516c:	80420000 	lb	v0,0(v0)
a0805170:	a0820000 	sb	v0,0(a0)
a0805174:	8fc30008 	lw	v1,8(s8)
a0805178:	8fc2000c 	lw	v0,12(s8)
a080517c:	00621023 	subu	v0,v1,v0
a0805180:	2443ffff 	addiu	v1,v0,-1
a0805184:	8fc20048 	lw	v0,72(s8)
a0805188:	00431821 	addu	v1,v0,v1
a080518c:	93c20000 	lbu	v0,0(s8)
a0805190:	a0620000 	sb	v0,0(v1)
a0805194:	8fc2000c 	lw	v0,12(s8)
a0805198:	24420001 	addiu	v0,v0,1
a080519c:	afc2000c 	sw	v0,12(s8)
a08051a0:	8fc20008 	lw	v0,8(s8)
a08051a4:	00021842 	srl	v1,v0,0x1
a08051a8:	8fc2000c 	lw	v0,12(s8)
a08051ac:	0043102b 	sltu	v0,v0,v1
a08051b0:	1440ffe0 	bnez	v0,a0805134 <mini_itoa+0x1dc>
a08051b4:	00000000 	nop
a08051b8:	8fc20008 	lw	v0,8(s8)
a08051bc:	afc20020 	sw	v0,32(s8)
a08051c0:	8fc20020 	lw	v0,32(s8)
a08051c4:	03c0e821 	move	sp,s8
a08051c8:	8fbe0034 	lw	s8,52(sp)
a08051cc:	27bd0038 	addiu	sp,sp,56
a08051d0:	03e00008 	jr	ra
a08051d4:	00000000 	nop

a08051d8 <_putc>:
a08051d8:	27bdfff0 	addiu	sp,sp,-16
a08051dc:	afbe000c 	sw	s8,12(sp)
a08051e0:	03a0f021 	move	s8,sp
a08051e4:	afc40010 	sw	a0,16(s8)
a08051e8:	afc50014 	sw	a1,20(s8)
a08051ec:	8fc20014 	lw	v0,20(s8)
a08051f0:	8c420004 	lw	v0,4(v0)
a08051f4:	00401821 	move	v1,v0
a08051f8:	8fc20014 	lw	v0,20(s8)
a08051fc:	8c420000 	lw	v0,0(v0)
a0805200:	00621023 	subu	v0,v1,v0
a0805204:	24420001 	addiu	v0,v0,1
a0805208:	00401821 	move	v1,v0
a080520c:	8fc20014 	lw	v0,20(s8)
a0805210:	8c420008 	lw	v0,8(v0)
a0805214:	0062102b 	sltu	v0,v1,v0
a0805218:	14400004 	bnez	v0,a080522c <_putc+0x54>
a080521c:	00000000 	nop
a0805220:	afc00000 	sw	zero,0(s8)
a0805224:	08201499 	j	a0805264 <_putc+0x8c>
a0805228:	00000000 	nop
a080522c:	8fc20014 	lw	v0,20(s8)
a0805230:	8c430004 	lw	v1,4(v0)
a0805234:	8fc20010 	lw	v0,16(s8)
a0805238:	00021600 	sll	v0,v0,0x18
a080523c:	00021603 	sra	v0,v0,0x18
a0805240:	a0620000 	sb	v0,0(v1)
a0805244:	24630001 	addiu	v1,v1,1
a0805248:	8fc20014 	lw	v0,20(s8)
a080524c:	ac430004 	sw	v1,4(v0)
a0805250:	8fc20014 	lw	v0,20(s8)
a0805254:	8c420004 	lw	v0,4(v0)
a0805258:	a0400000 	sb	zero,0(v0)
a080525c:	24020001 	li	v0,1
a0805260:	afc20000 	sw	v0,0(s8)
a0805264:	8fc20000 	lw	v0,0(s8)
a0805268:	03c0e821 	move	sp,s8
a080526c:	8fbe000c 	lw	s8,12(sp)
a0805270:	27bd0010 	addiu	sp,sp,16
a0805274:	03e00008 	jr	ra
a0805278:	00000000 	nop

a080527c <_puts>:
a080527c:	27bdfff0 	addiu	sp,sp,-16
a0805280:	afbe000c 	sw	s8,12(sp)
a0805284:	03a0f021 	move	s8,sp
a0805288:	afc40010 	sw	a0,16(s8)
a080528c:	afc50014 	sw	a1,20(s8)
a0805290:	afc60018 	sw	a2,24(s8)
a0805294:	8fc20018 	lw	v0,24(s8)
a0805298:	8c440008 	lw	a0,8(v0)
a080529c:	8fc20018 	lw	v0,24(s8)
a08052a0:	8c420000 	lw	v0,0(v0)
a08052a4:	00401821 	move	v1,v0
a08052a8:	8fc20018 	lw	v0,24(s8)
a08052ac:	8c420004 	lw	v0,4(v0)
a08052b0:	00621023 	subu	v0,v1,v0
a08052b4:	00821021 	addu	v0,a0,v0
a08052b8:	2443ffff 	addiu	v1,v0,-1
a08052bc:	8fc20014 	lw	v0,20(s8)
a08052c0:	0062102b 	sltu	v0,v1,v0
a08052c4:	1040000c 	beqz	v0,a08052f8 <_puts+0x7c>
a08052c8:	00000000 	nop
a08052cc:	8fc20018 	lw	v0,24(s8)
a08052d0:	8c440008 	lw	a0,8(v0)
a08052d4:	8fc20018 	lw	v0,24(s8)
a08052d8:	8c420000 	lw	v0,0(v0)
a08052dc:	00401821 	move	v1,v0
a08052e0:	8fc20018 	lw	v0,24(s8)
a08052e4:	8c420004 	lw	v0,4(v0)
a08052e8:	00621023 	subu	v0,v1,v0
a08052ec:	00821021 	addu	v0,a0,v0
a08052f0:	2442ffff 	addiu	v0,v0,-1
a08052f4:	afc20014 	sw	v0,20(s8)
a08052f8:	afc00000 	sw	zero,0(s8)
a08052fc:	082014ce 	j	a0805338 <_puts+0xbc>
a0805300:	00000000 	nop
a0805304:	8fc20018 	lw	v0,24(s8)
a0805308:	8c440004 	lw	a0,4(v0)
a080530c:	8fc30010 	lw	v1,16(s8)
a0805310:	8fc20000 	lw	v0,0(s8)
a0805314:	00621021 	addu	v0,v1,v0
a0805318:	80420000 	lb	v0,0(v0)
a080531c:	a0820000 	sb	v0,0(a0)
a0805320:	24830001 	addiu	v1,a0,1
a0805324:	8fc20018 	lw	v0,24(s8)
a0805328:	ac430004 	sw	v1,4(v0)
a080532c:	8fc20000 	lw	v0,0(s8)
a0805330:	24420001 	addiu	v0,v0,1
a0805334:	afc20000 	sw	v0,0(s8)
a0805338:	8fc20000 	lw	v0,0(s8)
a080533c:	8fc30014 	lw	v1,20(s8)
a0805340:	0043102b 	sltu	v0,v0,v1
a0805344:	1440ffef 	bnez	v0,a0805304 <_puts+0x88>
a0805348:	00000000 	nop
a080534c:	8fc20018 	lw	v0,24(s8)
a0805350:	8c420004 	lw	v0,4(v0)
a0805354:	a0400000 	sb	zero,0(v0)
a0805358:	8fc20014 	lw	v0,20(s8)
a080535c:	03c0e821 	move	sp,s8
a0805360:	8fbe000c 	lw	s8,12(sp)
a0805364:	27bd0010 	addiu	sp,sp,16
a0805368:	03e00008 	jr	ra
a080536c:	00000000 	nop

a0805370 <mini_vsnprintf>:
a0805370:	27bdffa8 	addiu	sp,sp,-88
a0805374:	afbf0054 	sw	ra,84(sp)
a0805378:	afbe0050 	sw	s8,80(sp)
a080537c:	03a0f021 	move	s8,sp
a0805380:	afc40058 	sw	a0,88(s8)
a0805384:	afc5005c 	sw	a1,92(s8)
a0805388:	afc60060 	sw	a2,96(s8)
a080538c:	afc70064 	sw	a3,100(s8)
a0805390:	8fc20058 	lw	v0,88(s8)
a0805394:	afc20024 	sw	v0,36(s8)
a0805398:	8fc20058 	lw	v0,88(s8)
a080539c:	afc20028 	sw	v0,40(s8)
a08053a0:	8fc2005c 	lw	v0,92(s8)
a08053a4:	afc2002c 	sw	v0,44(s8)
a08053a8:	082015a8 	j	a08056a0 <mini_vsnprintf+0x330>
a08053ac:	00000000 	nop
a08053b0:	8fc20028 	lw	v0,40(s8)
a08053b4:	00401821 	move	v1,v0
a08053b8:	8fc20024 	lw	v0,36(s8)
a08053bc:	00621023 	subu	v0,v1,v0
a08053c0:	24420001 	addiu	v0,v0,1
a08053c4:	00401821 	move	v1,v0
a08053c8:	8fc2002c 	lw	v0,44(s8)
a08053cc:	0062102b 	sltu	v0,v1,v0
a08053d0:	104000be 	beqz	v0,a08056cc <mini_vsnprintf+0x35c>
a08053d4:	00000000 	nop
a08053d8:	83c30021 	lb	v1,33(s8)
a08053dc:	24020025 	li	v0,37
a08053e0:	10620009 	beq	v1,v0,a0805408 <mini_vsnprintf+0x98>
a08053e4:	00000000 	nop
a08053e8:	83c20021 	lb	v0,33(s8)
a08053ec:	27c30024 	addiu	v1,s8,36
a08053f0:	00402021 	move	a0,v0
a08053f4:	00602821 	move	a1,v1
a08053f8:	0c201476 	jal	a08051d8 <_putc>
a08053fc:	00000000 	nop
a0805400:	082015a8 	j	a08056a0 <mini_vsnprintf+0x330>
a0805404:	00000000 	nop
a0805408:	a3c00020 	sb	zero,32(s8)
a080540c:	8fc20060 	lw	v0,96(s8)
a0805410:	90420000 	lbu	v0,0(v0)
a0805414:	a3c20021 	sb	v0,33(s8)
a0805418:	8fc20060 	lw	v0,96(s8)
a080541c:	24420001 	addiu	v0,v0,1
a0805420:	afc20060 	sw	v0,96(s8)
a0805424:	83c30021 	lb	v1,33(s8)
a0805428:	24020030 	li	v0,48
a080542c:	1462001c 	bne	v1,v0,a08054a0 <mini_vsnprintf+0x130>
a0805430:	00000000 	nop
a0805434:	8fc20060 	lw	v0,96(s8)
a0805438:	90420000 	lbu	v0,0(v0)
a080543c:	a3c20021 	sb	v0,33(s8)
a0805440:	8fc20060 	lw	v0,96(s8)
a0805444:	24420001 	addiu	v0,v0,1
a0805448:	afc20060 	sw	v0,96(s8)
a080544c:	83c20021 	lb	v0,33(s8)
a0805450:	1040009e 	beqz	v0,a08056cc <mini_vsnprintf+0x35c>
a0805454:	00000000 	nop
a0805458:	83c20021 	lb	v0,33(s8)
a080545c:	28420030 	slti	v0,v0,48
a0805460:	14400009 	bnez	v0,a0805488 <mini_vsnprintf+0x118>
a0805464:	00000000 	nop
a0805468:	83c20021 	lb	v0,33(s8)
a080546c:	2842003a 	slti	v0,v0,58
a0805470:	10400005 	beqz	v0,a0805488 <mini_vsnprintf+0x118>
a0805474:	00000000 	nop
a0805478:	93c20021 	lbu	v0,33(s8)
a080547c:	2442ffd0 	addiu	v0,v0,-48
a0805480:	304200ff 	andi	v0,v0,0xff
a0805484:	a3c20020 	sb	v0,32(s8)
a0805488:	8fc20060 	lw	v0,96(s8)
a080548c:	90420000 	lbu	v0,0(v0)
a0805490:	a3c20021 	sb	v0,33(s8)
a0805494:	8fc20060 	lw	v0,96(s8)
a0805498:	24420001 	addiu	v0,v0,1
a080549c:	afc20060 	sw	v0,96(s8)
a08054a0:	83c20021 	lb	v0,33(s8)
a08054a4:	afc20048 	sw	v0,72(s8)
a08054a8:	24020064 	li	v0,100
a08054ac:	8fc30048 	lw	v1,72(s8)
a08054b0:	10620020 	beq	v1,v0,a0805534 <mini_vsnprintf+0x1c4>
a08054b4:	00000000 	nop
a08054b8:	8fc30048 	lw	v1,72(s8)
a08054bc:	28620065 	slti	v0,v1,101
a08054c0:	1040000e 	beqz	v0,a08054fc <mini_vsnprintf+0x18c>
a08054c4:	00000000 	nop
a08054c8:	24020058 	li	v0,88
a08054cc:	8fc30048 	lw	v1,72(s8)
a08054d0:	10620033 	beq	v1,v0,a08055a0 <mini_vsnprintf+0x230>
a08054d4:	00000000 	nop
a08054d8:	24020063 	li	v0,99
a08054dc:	8fc30048 	lw	v1,72(s8)
a08054e0:	1062004a 	beq	v1,v0,a080560c <mini_vsnprintf+0x29c>
a08054e4:	00000000 	nop
a08054e8:	8fc20048 	lw	v0,72(s8)
a08054ec:	10400077 	beqz	v0,a08056cc <mini_vsnprintf+0x35c>
a08054f0:	00000000 	nop
a08054f4:	082015a2 	j	a0805688 <mini_vsnprintf+0x318>
a08054f8:	00000000 	nop
a08054fc:	24020075 	li	v0,117
a0805500:	8fc30048 	lw	v1,72(s8)
a0805504:	1062000b 	beq	v1,v0,a0805534 <mini_vsnprintf+0x1c4>
a0805508:	00000000 	nop
a080550c:	24020078 	li	v0,120
a0805510:	8fc30048 	lw	v1,72(s8)
a0805514:	10620022 	beq	v1,v0,a08055a0 <mini_vsnprintf+0x230>
a0805518:	00000000 	nop
a080551c:	24020073 	li	v0,115
a0805520:	8fc30048 	lw	v1,72(s8)
a0805524:	10620047 	beq	v1,v0,a0805644 <mini_vsnprintf+0x2d4>
a0805528:	00000000 	nop
a080552c:	082015a2 	j	a0805688 <mini_vsnprintf+0x318>
a0805530:	00000000 	nop
a0805534:	8fc30064 	lw	v1,100(s8)
a0805538:	24620004 	addiu	v0,v1,4
a080553c:	afc20064 	sw	v0,100(s8)
a0805540:	00601021 	move	v0,v1
a0805544:	8c420000 	lw	v0,0(v0)
a0805548:	00402021 	move	a0,v0
a080554c:	83c20021 	lb	v0,33(s8)
a0805550:	38420075 	xori	v0,v0,0x75
a0805554:	2c470001 	sltiu	a3,v0,1
a0805558:	83c30020 	lb	v1,32(s8)
a080555c:	27c20030 	addiu	v0,s8,48
a0805560:	afa20010 	sw	v0,16(sp)
a0805564:	afa30014 	sw	v1,20(sp)
a0805568:	2405000a 	li	a1,10
a080556c:	00003021 	move	a2,zero
a0805570:	0c2013d6 	jal	a0804f58 <mini_itoa>
a0805574:	00000000 	nop
a0805578:	afc20018 	sw	v0,24(s8)
a080557c:	27c20030 	addiu	v0,s8,48
a0805580:	27c30024 	addiu	v1,s8,36
a0805584:	00402021 	move	a0,v0
a0805588:	8fc50018 	lw	a1,24(s8)
a080558c:	00603021 	move	a2,v1
a0805590:	0c20149f 	jal	a080527c <_puts>
a0805594:	00000000 	nop
a0805598:	082015a8 	j	a08056a0 <mini_vsnprintf+0x330>
a080559c:	00000000 	nop
a08055a0:	8fc30064 	lw	v1,100(s8)
a08055a4:	24620004 	addiu	v0,v1,4
a08055a8:	afc20064 	sw	v0,100(s8)
a08055ac:	00601021 	move	v0,v1
a08055b0:	8c420000 	lw	v0,0(v0)
a08055b4:	00402021 	move	a0,v0
a08055b8:	83c20021 	lb	v0,33(s8)
a08055bc:	38420058 	xori	v0,v0,0x58
a08055c0:	2c460001 	sltiu	a2,v0,1
a08055c4:	83c30020 	lb	v1,32(s8)
a08055c8:	27c20030 	addiu	v0,s8,48
a08055cc:	afa20010 	sw	v0,16(sp)
a08055d0:	afa30014 	sw	v1,20(sp)
a08055d4:	24050010 	li	a1,16
a08055d8:	24070001 	li	a3,1
a08055dc:	0c2013d6 	jal	a0804f58 <mini_itoa>
a08055e0:	00000000 	nop
a08055e4:	afc20018 	sw	v0,24(s8)
a08055e8:	27c20030 	addiu	v0,s8,48
a08055ec:	27c30024 	addiu	v1,s8,36
a08055f0:	00402021 	move	a0,v0
a08055f4:	8fc50018 	lw	a1,24(s8)
a08055f8:	00603021 	move	a2,v1
a08055fc:	0c20149f 	jal	a080527c <_puts>
a0805600:	00000000 	nop
a0805604:	082015a8 	j	a08056a0 <mini_vsnprintf+0x330>
a0805608:	00000000 	nop
a080560c:	8fc30064 	lw	v1,100(s8)
a0805610:	24620004 	addiu	v0,v1,4
a0805614:	afc20064 	sw	v0,100(s8)
a0805618:	00601021 	move	v0,v1
a080561c:	8c420000 	lw	v0,0(v0)
a0805620:	00021600 	sll	v0,v0,0x18
a0805624:	00021603 	sra	v0,v0,0x18
a0805628:	27c30024 	addiu	v1,s8,36
a080562c:	00402021 	move	a0,v0
a0805630:	00602821 	move	a1,v1
a0805634:	0c201476 	jal	a08051d8 <_putc>
a0805638:	00000000 	nop
a080563c:	082015a8 	j	a08056a0 <mini_vsnprintf+0x330>
a0805640:	00000000 	nop
a0805644:	8fc30064 	lw	v1,100(s8)
a0805648:	24620004 	addiu	v0,v1,4
a080564c:	afc20064 	sw	v0,100(s8)
a0805650:	00601021 	move	v0,v1
a0805654:	8c420000 	lw	v0,0(v0)
a0805658:	afc2001c 	sw	v0,28(s8)
a080565c:	8fc4001c 	lw	a0,28(s8)
a0805660:	0c2013c0 	jal	a0804f00 <mini_strlen>
a0805664:	00000000 	nop
a0805668:	27c30024 	addiu	v1,s8,36
a080566c:	8fc4001c 	lw	a0,28(s8)
a0805670:	00402821 	move	a1,v0
a0805674:	00603021 	move	a2,v1
a0805678:	0c20149f 	jal	a080527c <_puts>
a080567c:	00000000 	nop
a0805680:	082015a8 	j	a08056a0 <mini_vsnprintf+0x330>
a0805684:	00000000 	nop
a0805688:	83c20021 	lb	v0,33(s8)
a080568c:	27c30024 	addiu	v1,s8,36
a0805690:	00402021 	move	a0,v0
a0805694:	00602821 	move	a1,v1
a0805698:	0c201476 	jal	a08051d8 <_putc>
a080569c:	00000000 	nop
a08056a0:	8fc20060 	lw	v0,96(s8)
a08056a4:	90420000 	lbu	v0,0(v0)
a08056a8:	a3c20021 	sb	v0,33(s8)
a08056ac:	83c20021 	lb	v0,33(s8)
a08056b0:	0002102b 	sltu	v0,zero,v0
a08056b4:	304300ff 	andi	v1,v0,0xff
a08056b8:	8fc20060 	lw	v0,96(s8)
a08056bc:	24420001 	addiu	v0,v0,1
a08056c0:	afc20060 	sw	v0,96(s8)
a08056c4:	1460ff3a 	bnez	v1,a08053b0 <mini_vsnprintf+0x40>
a08056c8:	00000000 	nop
a08056cc:	8fc20028 	lw	v0,40(s8)
a08056d0:	00401821 	move	v1,v0
a08056d4:	8fc20024 	lw	v0,36(s8)
a08056d8:	00621023 	subu	v0,v1,v0
a08056dc:	03c0e821 	move	sp,s8
a08056e0:	8fbf0054 	lw	ra,84(sp)
a08056e4:	8fbe0050 	lw	s8,80(sp)
a08056e8:	27bd0058 	addiu	sp,sp,88
a08056ec:	03e00008 	jr	ra
a08056f0:	00000000 	nop

a08056f4 <printk>:
a08056f4:	27bdfee0 	addiu	sp,sp,-288
a08056f8:	afbf011c 	sw	ra,284(sp)
a08056fc:	afbe0118 	sw	s8,280(sp)
a0805700:	03a0f021 	move	s8,sp
a0805704:	afc50124 	sw	a1,292(s8)
a0805708:	afc60128 	sw	a2,296(s8)
a080570c:	afc7012c 	sw	a3,300(s8)
a0805710:	afc40120 	sw	a0,288(s8)
a0805714:	27c20124 	addiu	v0,s8,292
a0805718:	afc20014 	sw	v0,20(s8)
a080571c:	8fc30014 	lw	v1,20(s8)
a0805720:	27c20018 	addiu	v0,s8,24
a0805724:	00402021 	move	a0,v0
a0805728:	24050100 	li	a1,256
a080572c:	8fc60120 	lw	a2,288(s8)
a0805730:	00603821 	move	a3,v1
a0805734:	0c2014dc 	jal	a0805370 <mini_vsnprintf>
a0805738:	00000000 	nop
a080573c:	afc20010 	sw	v0,16(s8)
a0805740:	8fc30010 	lw	v1,16(s8)
a0805744:	27c20010 	addiu	v0,s8,16
a0805748:	00431021 	addu	v0,v0,v1
a080574c:	a0400008 	sb	zero,8(v0)
a0805750:	27c20018 	addiu	v0,s8,24
a0805754:	00402021 	move	a0,v0
a0805758:	0c2002ac 	jal	a0800ab0 <port_write>
a080575c:	00000000 	nop
a0805760:	8fc20010 	lw	v0,16(s8)
a0805764:	03c0e821 	move	sp,s8
a0805768:	8fbf011c 	lw	ra,284(sp)
a080576c:	8fbe0118 	lw	s8,280(sp)
a0805770:	27bd0120 	addiu	sp,sp,288
a0805774:	03e00008 	jr	ra
a0805778:	00000000 	nop

a080577c <printf>:
a080577c:	27bdfee0 	addiu	sp,sp,-288
a0805780:	afbf011c 	sw	ra,284(sp)
a0805784:	afbe0118 	sw	s8,280(sp)
a0805788:	03a0f021 	move	s8,sp
a080578c:	afc50124 	sw	a1,292(s8)
a0805790:	afc60128 	sw	a2,296(s8)
a0805794:	afc7012c 	sw	a3,300(s8)
a0805798:	afc40120 	sw	a0,288(s8)
a080579c:	27c20124 	addiu	v0,s8,292
a08057a0:	afc20014 	sw	v0,20(s8)
a08057a4:	8fc30014 	lw	v1,20(s8)
a08057a8:	27c20018 	addiu	v0,s8,24
a08057ac:	00402021 	move	a0,v0
a08057b0:	24050100 	li	a1,256
a08057b4:	8fc60120 	lw	a2,288(s8)
a08057b8:	00603821 	move	a3,v1
a08057bc:	0c2014dc 	jal	a0805370 <mini_vsnprintf>
a08057c0:	00000000 	nop
a08057c4:	afc20010 	sw	v0,16(s8)
a08057c8:	8fc30010 	lw	v1,16(s8)
a08057cc:	27c20010 	addiu	v0,s8,16
a08057d0:	00431021 	addu	v0,v0,v1
a08057d4:	a0400008 	sb	zero,8(v0)
a08057d8:	27c20018 	addiu	v0,s8,24
a08057dc:	00402021 	move	a0,v0
a08057e0:	0c2010f5 	jal	a08043d4 <sys_write>
a08057e4:	00000000 	nop
a08057e8:	8fc20010 	lw	v0,16(s8)
a08057ec:	03c0e821 	move	sp,s8
a08057f0:	8fbf011c 	lw	ra,284(sp)
a08057f4:	8fbe0118 	lw	s8,280(sp)
a08057f8:	27bd0120 	addiu	sp,sp,288
a08057fc:	03e00008 	jr	ra
a0805800:	00000000 	nop

a0805804 <do_print>:
a0805804:	27bdfee0 	addiu	sp,sp,-288
a0805808:	afbf011c 	sw	ra,284(sp)
a080580c:	afbe0118 	sw	s8,280(sp)
a0805810:	03a0f021 	move	s8,sp
a0805814:	afc50124 	sw	a1,292(s8)
a0805818:	afc60128 	sw	a2,296(s8)
a080581c:	afc7012c 	sw	a3,300(s8)
a0805820:	afc40120 	sw	a0,288(s8)
a0805824:	27c20124 	addiu	v0,s8,292
a0805828:	afc20014 	sw	v0,20(s8)
a080582c:	8fc30014 	lw	v1,20(s8)
a0805830:	27c20018 	addiu	v0,s8,24
a0805834:	00402021 	move	a0,v0
a0805838:	24050100 	li	a1,256
a080583c:	8fc60120 	lw	a2,288(s8)
a0805840:	00603821 	move	a3,v1
a0805844:	0c2014dc 	jal	a0805370 <mini_vsnprintf>
a0805848:	00000000 	nop
a080584c:	afc20010 	sw	v0,16(s8)
a0805850:	8fc30010 	lw	v1,16(s8)
a0805854:	27c20010 	addiu	v0,s8,16
a0805858:	00431021 	addu	v0,v0,v1
a080585c:	a0400008 	sb	zero,8(v0)
a0805860:	27c20018 	addiu	v0,s8,24
a0805864:	00402021 	move	a0,v0
a0805868:	0c200432 	jal	a08010c8 <screen_write>
a080586c:	00000000 	nop
a0805870:	8fc20010 	lw	v0,16(s8)
a0805874:	03c0e821 	move	sp,s8
a0805878:	8fbf011c 	lw	ra,284(sp)
a080587c:	8fbe0118 	lw	s8,280(sp)
a0805880:	27bd0120 	addiu	sp,sp,288
a0805884:	03e00008 	jr	ra
a0805888:	00000000 	nop
a080588c:	00000000 	nop

a0805890 <disable_interrupt>:
a0805890:	27bdffe0 	addiu	sp,sp,-32
a0805894:	afbf001c 	sw	ra,28(sp)
a0805898:	afbe0018 	sw	s8,24(sp)
a080589c:	03a0f021 	move	s8,sp
a08058a0:	0c2000c1 	jal	a0800304 <GET_CP0_STATUS>
a08058a4:	00000000 	nop
a08058a8:	afc20010 	sw	v0,16(s8)
a08058ac:	8fc30010 	lw	v1,16(s8)
a08058b0:	2402fffe 	li	v0,-2
a08058b4:	00621024 	and	v0,v1,v0
a08058b8:	afc20010 	sw	v0,16(s8)
a08058bc:	8fc40010 	lw	a0,16(s8)
a08058c0:	0c2000ca 	jal	a0800328 <SET_CP0_STATUS>
a08058c4:	00000000 	nop
a08058c8:	03c0e821 	move	sp,s8
a08058cc:	8fbf001c 	lw	ra,28(sp)
a08058d0:	8fbe0018 	lw	s8,24(sp)
a08058d4:	27bd0020 	addiu	sp,sp,32
a08058d8:	03e00008 	jr	ra
a08058dc:	00000000 	nop

a08058e0 <enable_interrupt>:
a08058e0:	27bdffe0 	addiu	sp,sp,-32
a08058e4:	afbf001c 	sw	ra,28(sp)
a08058e8:	afbe0018 	sw	s8,24(sp)
a08058ec:	03a0f021 	move	s8,sp
a08058f0:	0c2000c1 	jal	a0800304 <GET_CP0_STATUS>
a08058f4:	00000000 	nop
a08058f8:	afc20010 	sw	v0,16(s8)
a08058fc:	8fc20010 	lw	v0,16(s8)
a0805900:	34420001 	ori	v0,v0,0x1
a0805904:	afc20010 	sw	v0,16(s8)
a0805908:	8fc40010 	lw	a0,16(s8)
a080590c:	0c2000ca 	jal	a0800328 <SET_CP0_STATUS>
a0805910:	00000000 	nop
a0805914:	03c0e821 	move	sp,s8
a0805918:	8fbf001c 	lw	ra,28(sp)
a080591c:	8fbe0018 	lw	s8,24(sp)
a0805920:	27bd0020 	addiu	sp,sp,32
a0805924:	03e00008 	jr	ra
a0805928:	00000000 	nop

a080592c <read_uart_ch>:
a080592c:	27bdffe8 	addiu	sp,sp,-24
a0805930:	afbe0014 	sw	s8,20(sp)
a0805934:	03a0f021 	move	s8,sp
a0805938:	a3c00008 	sb	zero,8(s8)
a080593c:	3c02bfe4 	lui	v0,0xbfe4
a0805940:	34428000 	ori	v0,v0,0x8000
a0805944:	afc20004 	sw	v0,4(s8)
a0805948:	3c02bfe4 	lui	v0,0xbfe4
a080594c:	34428005 	ori	v0,v0,0x8005
a0805950:	afc20000 	sw	v0,0(s8)
a0805954:	0820165a 	j	a0805968 <read_uart_ch+0x3c>
a0805958:	00000000 	nop
a080595c:	8fc20004 	lw	v0,4(s8)
a0805960:	90420000 	lbu	v0,0(v0)
a0805964:	a3c20008 	sb	v0,8(s8)
a0805968:	8fc20000 	lw	v0,0(s8)
a080596c:	90420000 	lbu	v0,0(v0)
a0805970:	30420001 	andi	v0,v0,0x1
a0805974:	304200ff 	andi	v0,v0,0xff
a0805978:	1440fff8 	bnez	v0,a080595c <read_uart_ch+0x30>
a080597c:	00000000 	nop
a0805980:	83c20008 	lb	v0,8(s8)
a0805984:	03c0e821 	move	sp,s8
a0805988:	8fbe0014 	lw	s8,20(sp)
a080598c:	27bd0018 	addiu	sp,sp,24
a0805990:	03e00008 	jr	ra
a0805994:	00000000 	nop

a0805998 <process_cmd>:
a0805998:	27bdffd8 	addiu	sp,sp,-40
a080599c:	afbf0024 	sw	ra,36(sp)
a08059a0:	afbe0020 	sw	s8,32(sp)
a08059a4:	afb0001c 	sw	s0,28(sp)
a08059a8:	03a0f021 	move	s8,sp
a08059ac:	afc40028 	sw	a0,40(s8)
a08059b0:	afc5002c 	sw	a1,44(s8)
a08059b4:	8fc30028 	lw	v1,40(s8)
a08059b8:	24020001 	li	v0,1
a08059bc:	1462002b 	bne	v1,v0,a0805a6c <process_cmd+0xd4>
a08059c0:	00000000 	nop
a08059c4:	8fc2002c 	lw	v0,44(s8)
a08059c8:	00402021 	move	a0,v0
a08059cc:	3c02a080 	lui	v0,0xa080
a08059d0:	244565a0 	addiu	a1,v0,26016
a08059d4:	0c2012dc 	jal	a0804b70 <strcmp>
a08059d8:	00000000 	nop
a08059dc:	14400005 	bnez	v0,a08059f4 <process_cmd+0x5c>
a08059e0:	00000000 	nop
a08059e4:	0c20115f 	jal	a080457c <sys_ps>
a08059e8:	00000000 	nop
a08059ec:	0820170d 	j	a0805c34 <process_cmd+0x29c>
a08059f0:	00000000 	nop
a08059f4:	8fc2002c 	lw	v0,44(s8)
a08059f8:	00402021 	move	a0,v0
a08059fc:	3c02a080 	lui	v0,0xa080
a0805a00:	244565a4 	addiu	a1,v0,26020
a0805a04:	0c2012dc 	jal	a0804b70 <strcmp>
a0805a08:	00000000 	nop
a0805a0c:	14400005 	bnez	v0,a0805a24 <process_cmd+0x8c>
a0805a10:	00000000 	nop
a0805a14:	0c201269 	jal	a08049a4 <sys_clear>
a0805a18:	00000000 	nop
a0805a1c:	0820170d 	j	a0805c34 <process_cmd+0x29c>
a0805a20:	00000000 	nop
a0805a24:	8fc2002c 	lw	v0,44(s8)
a0805a28:	00402021 	move	a0,v0
a0805a2c:	3c02a080 	lui	v0,0xa080
a0805a30:	244565ac 	addiu	a1,v0,26028
a0805a34:	0c2012dc 	jal	a0804b70 <strcmp>
a0805a38:	00000000 	nop
a0805a3c:	14400005 	bnez	v0,a0805a54 <process_cmd+0xbc>
a0805a40:	00000000 	nop
a0805a44:	0c201192 	jal	a0804648 <sys_exit>
a0805a48:	00000000 	nop
a0805a4c:	0820170d 	j	a0805c34 <process_cmd+0x29c>
a0805a50:	00000000 	nop
a0805a54:	3c02a080 	lui	v0,0xa080
a0805a58:	244465b4 	addiu	a0,v0,26036
a0805a5c:	0c2015df 	jal	a080577c <printf>
a0805a60:	00000000 	nop
a0805a64:	0820170d 	j	a0805c34 <process_cmd+0x29c>
a0805a68:	00000000 	nop
a0805a6c:	8fc30028 	lw	v1,40(s8)
a0805a70:	24020002 	li	v0,2
a0805a74:	14620033 	bne	v1,v0,a0805b44 <process_cmd+0x1ac>
a0805a78:	00000000 	nop
a0805a7c:	8fc2002c 	lw	v0,44(s8)
a0805a80:	2442000f 	addiu	v0,v0,15
a0805a84:	00402021 	move	a0,v0
a0805a88:	0c201360 	jal	a0804d80 <atoi>
a0805a8c:	00000000 	nop
a0805a90:	afc20014 	sw	v0,20(s8)
a0805a94:	8fc2002c 	lw	v0,44(s8)
a0805a98:	00402021 	move	a0,v0
a0805a9c:	3c02a080 	lui	v0,0xa080
a0805aa0:	244565c8 	addiu	a1,v0,26056
a0805aa4:	0c2012dc 	jal	a0804b70 <strcmp>
a0805aa8:	00000000 	nop
a0805aac:	14400012 	bnez	v0,a0805af8 <process_cmd+0x160>
a0805ab0:	00000000 	nop
a0805ab4:	8fc20014 	lw	v0,20(s8)
a0805ab8:	2442ffff 	addiu	v0,v0,-1
a0805abc:	3c03a080 	lui	v1,0xa080
a0805ac0:	00022080 	sll	a0,v0,0x2
a0805ac4:	24626710 	addiu	v0,v1,26384
a0805ac8:	00821021 	addu	v0,a0,v0
a0805acc:	8c420000 	lw	v0,0(v0)
a0805ad0:	00402021 	move	a0,v0
a0805ad4:	0c20116f 	jal	a08045bc <sys_spawn>
a0805ad8:	00000000 	nop
a0805adc:	3c02a080 	lui	v0,0xa080
a0805ae0:	244465d0 	addiu	a0,v0,26064
a0805ae4:	8fc50014 	lw	a1,20(s8)
a0805ae8:	0c2015df 	jal	a080577c <printf>
a0805aec:	00000000 	nop
a0805af0:	0820170d 	j	a0805c34 <process_cmd+0x29c>
a0805af4:	00000000 	nop
a0805af8:	8fc2002c 	lw	v0,44(s8)
a0805afc:	00402021 	move	a0,v0
a0805b00:	3c02a080 	lui	v0,0xa080
a0805b04:	244565e4 	addiu	a1,v0,26084
a0805b08:	0c2012dc 	jal	a0804b70 <strcmp>
a0805b0c:	00000000 	nop
a0805b10:	14400006 	bnez	v0,a0805b2c <process_cmd+0x194>
a0805b14:	00000000 	nop
a0805b18:	8fc40014 	lw	a0,20(s8)
a0805b1c:	0c201181 	jal	a0804604 <sys_kill>
a0805b20:	00000000 	nop
a0805b24:	0820170d 	j	a0805c34 <process_cmd+0x29c>
a0805b28:	00000000 	nop
a0805b2c:	3c02a080 	lui	v0,0xa080
a0805b30:	244465b4 	addiu	a0,v0,26036
a0805b34:	0c2015df 	jal	a080577c <printf>
a0805b38:	00000000 	nop
a0805b3c:	0820170d 	j	a0805c34 <process_cmd+0x29c>
a0805b40:	00000000 	nop
a0805b44:	8fc30028 	lw	v1,40(s8)
a0805b48:	24020006 	li	v0,6
a0805b4c:	14620032 	bne	v1,v0,a0805c18 <process_cmd+0x280>
a0805b50:	00000000 	nop
a0805b54:	afc00010 	sw	zero,16(s8)
a0805b58:	082016f6 	j	a0805bd8 <process_cmd+0x240>
a0805b5c:	00000000 	nop
a0805b60:	8fd00010 	lw	s0,16(s8)
a0805b64:	8fc4002c 	lw	a0,44(s8)
a0805b68:	8fc30010 	lw	v1,16(s8)
a0805b6c:	00601021 	move	v0,v1
a0805b70:	00021100 	sll	v0,v0,0x4
a0805b74:	00431023 	subu	v0,v0,v1
a0805b78:	00821021 	addu	v0,a0,v0
a0805b7c:	00402021 	move	a0,v0
a0805b80:	0c201387 	jal	a0804e1c <hextoi>
a0805b84:	00000000 	nop
a0805b88:	00402021 	move	a0,v0
a0805b8c:	3c02a083 	lui	v0,0xa083
a0805b90:	00101880 	sll	v1,s0,0x2
a0805b94:	24427c20 	addiu	v0,v0,31776
a0805b98:	00621021 	addu	v0,v1,v0
a0805b9c:	ac440000 	sw	a0,0(v0)
a0805ba0:	8fc20010 	lw	v0,16(s8)
a0805ba4:	3c03a083 	lui	v1,0xa083
a0805ba8:	00022080 	sll	a0,v0,0x2
a0805bac:	24627c20 	addiu	v0,v1,31776
a0805bb0:	00821021 	addu	v0,a0,v0
a0805bb4:	8c430000 	lw	v1,0(v0)
a0805bb8:	3c02a080 	lui	v0,0xa080
a0805bbc:	244465ec 	addiu	a0,v0,26092
a0805bc0:	00602821 	move	a1,v1
a0805bc4:	0c2015df 	jal	a080577c <printf>
a0805bc8:	00000000 	nop
a0805bcc:	8fc20010 	lw	v0,16(s8)
a0805bd0:	24420001 	addiu	v0,v0,1
a0805bd4:	afc20010 	sw	v0,16(s8)
a0805bd8:	8fc20010 	lw	v0,16(s8)
a0805bdc:	28420006 	slti	v0,v0,6
a0805be0:	1440ffdf 	bnez	v0,a0805b60 <process_cmd+0x1c8>
a0805be4:	00000000 	nop
a0805be8:	3c02a080 	lui	v0,0xa080
a0805bec:	24426710 	addiu	v0,v0,26384
a0805bf0:	8c420004 	lw	v0,4(v0)
a0805bf4:	00402021 	move	a0,v0
a0805bf8:	0c20116f 	jal	a08045bc <sys_spawn>
a0805bfc:	00000000 	nop
a0805c00:	3c02a080 	lui	v0,0xa080
a0805c04:	244465f0 	addiu	a0,v0,26096
a0805c08:	0c2015df 	jal	a080577c <printf>
a0805c0c:	00000000 	nop
a0805c10:	0820170d 	j	a0805c34 <process_cmd+0x29c>
a0805c14:	00000000 	nop
a0805c18:	8fc20028 	lw	v0,40(s8)
a0805c1c:	10400005 	beqz	v0,a0805c34 <process_cmd+0x29c>
a0805c20:	00000000 	nop
a0805c24:	3c02a080 	lui	v0,0xa080
a0805c28:	244465b4 	addiu	a0,v0,26036
a0805c2c:	0c2015df 	jal	a080577c <printf>
a0805c30:	00000000 	nop
a0805c34:	03c0e821 	move	sp,s8
a0805c38:	8fbf0024 	lw	ra,36(sp)
a0805c3c:	8fbe0020 	lw	s8,32(sp)
a0805c40:	8fb0001c 	lw	s0,28(sp)
a0805c44:	27bd0028 	addiu	sp,sp,40
a0805c48:	03e00008 	jr	ra
a0805c4c:	00000000 	nop

a0805c50 <test_shell>:
a0805c50:	27bdff90 	addiu	sp,sp,-112
a0805c54:	afbf006c 	sw	ra,108(sp)
a0805c58:	afbe0068 	sw	s8,104(sp)
a0805c5c:	03a0f021 	move	s8,sp
a0805c60:	afc00020 	sw	zero,32(s8)
a0805c64:	00002021 	move	a0,zero
a0805c68:	2405000f 	li	a1,15
a0805c6c:	0c201117 	jal	a080445c <sys_move_cursor>
a0805c70:	00000000 	nop
a0805c74:	3c02a080 	lui	v0,0xa080
a0805c78:	24446604 	addiu	a0,v0,26116
a0805c7c:	0c2015df 	jal	a080577c <printf>
a0805c80:	00000000 	nop
a0805c84:	3c02a080 	lui	v0,0xa080
a0805c88:	24446638 	addiu	a0,v0,26168
a0805c8c:	0c2015df 	jal	a080577c <printf>
a0805c90:	00000000 	nop
a0805c94:	0c201624 	jal	a0805890 <disable_interrupt>
a0805c98:	00000000 	nop
a0805c9c:	0c20164b 	jal	a080592c <read_uart_ch>
a0805ca0:	00000000 	nop
a0805ca4:	a3c20010 	sb	v0,16(s8)
a0805ca8:	0c201638 	jal	a08058e0 <enable_interrupt>
a0805cac:	00000000 	nop
a0805cb0:	83c20010 	lb	v0,16(s8)
a0805cb4:	1040fff7 	beqz	v0,a0805c94 <test_shell+0x44>
a0805cb8:	00000000 	nop
a0805cbc:	8fc20020 	lw	v0,32(s8)
a0805cc0:	14400009 	bnez	v0,a0805ce8 <test_shell+0x98>
a0805cc4:	00000000 	nop
a0805cc8:	83c30010 	lb	v1,16(s8)
a0805ccc:	2402007f 	li	v0,127
a0805cd0:	1062fff0 	beq	v1,v0,a0805c94 <test_shell+0x44>
a0805cd4:	00000000 	nop
a0805cd8:	83c30010 	lb	v1,16(s8)
a0805cdc:	24020008 	li	v0,8
a0805ce0:	1062ffec 	beq	v1,v0,a0805c94 <test_shell+0x44>
a0805ce4:	00000000 	nop
a0805ce8:	83c30010 	lb	v1,16(s8)
a0805cec:	3c02a080 	lui	v0,0xa080
a0805cf0:	2444664c 	addiu	a0,v0,26188
a0805cf4:	00602821 	move	a1,v1
a0805cf8:	0c2015df 	jal	a080577c <printf>
a0805cfc:	00000000 	nop
a0805d00:	83c30010 	lb	v1,16(s8)
a0805d04:	2402000d 	li	v0,13
a0805d08:	10620018 	beq	v1,v0,a0805d6c <test_shell+0x11c>
a0805d0c:	00000000 	nop
a0805d10:	83c30010 	lb	v1,16(s8)
a0805d14:	24020008 	li	v0,8
a0805d18:	10620005 	beq	v1,v0,a0805d30 <test_shell+0xe0>
a0805d1c:	00000000 	nop
a0805d20:	83c30010 	lb	v1,16(s8)
a0805d24:	2402007f 	li	v0,127
a0805d28:	14620006 	bne	v1,v0,a0805d44 <test_shell+0xf4>
a0805d2c:	00000000 	nop
a0805d30:	8fc20020 	lw	v0,32(s8)
a0805d34:	2442ffff 	addiu	v0,v0,-1
a0805d38:	afc20020 	sw	v0,32(s8)
a0805d3c:	08201725 	j	a0805c94 <test_shell+0x44>
a0805d40:	00000000 	nop
a0805d44:	8fc30020 	lw	v1,32(s8)
a0805d48:	27c20010 	addiu	v0,s8,16
a0805d4c:	00431821 	addu	v1,v0,v1
a0805d50:	93c20010 	lbu	v0,16(s8)
a0805d54:	a0620014 	sb	v0,20(v1)
a0805d58:	8fc20020 	lw	v0,32(s8)
a0805d5c:	24420001 	addiu	v0,v0,1
a0805d60:	afc20020 	sw	v0,32(s8)
a0805d64:	08201725 	j	a0805c94 <test_shell+0x44>
a0805d68:	00000000 	nop
a0805d6c:	8fc30020 	lw	v1,32(s8)
a0805d70:	27c20010 	addiu	v0,s8,16
a0805d74:	00431821 	addu	v1,v0,v1
a0805d78:	24020020 	li	v0,32
a0805d7c:	a0620014 	sb	v0,20(v1)
a0805d80:	8fc20020 	lw	v0,32(s8)
a0805d84:	24420001 	addiu	v0,v0,1
a0805d88:	afc20020 	sw	v0,32(s8)
a0805d8c:	8fc30020 	lw	v1,32(s8)
a0805d90:	27c20010 	addiu	v0,s8,16
a0805d94:	00431021 	addu	v0,v0,v1
a0805d98:	a0400014 	sb	zero,20(v0)
a0805d9c:	afc00018 	sw	zero,24(s8)
a0805da0:	8fc30018 	lw	v1,24(s8)
a0805da4:	27c20010 	addiu	v0,s8,16
a0805da8:	00431021 	addu	v0,v0,v1
a0805dac:	80430014 	lb	v1,20(v0)
a0805db0:	24020020 	li	v0,32
a0805db4:	14620012 	bne	v1,v0,a0805e00 <test_shell+0x1b0>
a0805db8:	00000000 	nop
a0805dbc:	08201774 	j	a0805dd0 <test_shell+0x180>
a0805dc0:	00000000 	nop
a0805dc4:	8fc20018 	lw	v0,24(s8)
a0805dc8:	24420001 	addiu	v0,v0,1
a0805dcc:	afc20018 	sw	v0,24(s8)
a0805dd0:	8fc30018 	lw	v1,24(s8)
a0805dd4:	27c20010 	addiu	v0,s8,16
a0805dd8:	00431021 	addu	v0,v0,v1
a0805ddc:	80430014 	lb	v1,20(v0)
a0805de0:	24020020 	li	v0,32
a0805de4:	14620006 	bne	v1,v0,a0805e00 <test_shell+0x1b0>
a0805de8:	00000000 	nop
a0805dec:	8fc20018 	lw	v0,24(s8)
a0805df0:	8fc30020 	lw	v1,32(s8)
a0805df4:	0043102b 	sltu	v0,v0,v1
a0805df8:	1440fff2 	bnez	v0,a0805dc4 <test_shell+0x174>
a0805dfc:	00000000 	nop
a0805e00:	afc00014 	sw	zero,20(s8)
a0805e04:	8fc20014 	lw	v0,20(s8)
a0805e08:	afc2001c 	sw	v0,28(s8)
a0805e0c:	082017bd 	j	a0805ef4 <test_shell+0x2a4>
a0805e10:	00000000 	nop
a0805e14:	8fc30018 	lw	v1,24(s8)
a0805e18:	27c20010 	addiu	v0,s8,16
a0805e1c:	00431021 	addu	v0,v0,v1
a0805e20:	80430014 	lb	v1,20(v0)
a0805e24:	24020020 	li	v0,32
a0805e28:	1462001f 	bne	v1,v0,a0805ea8 <test_shell+0x258>
a0805e2c:	00000000 	nop
a0805e30:	8fc3001c 	lw	v1,28(s8)
a0805e34:	8fc40014 	lw	a0,20(s8)
a0805e38:	00601021 	move	v0,v1
a0805e3c:	00021100 	sll	v0,v0,0x4
a0805e40:	00431023 	subu	v0,v0,v1
a0805e44:	27c30010 	addiu	v1,s8,16
a0805e48:	00621021 	addu	v0,v1,v0
a0805e4c:	00441021 	addu	v0,v0,a0
a0805e50:	a0400028 	sb	zero,40(v0)
a0805e54:	8fc2001c 	lw	v0,28(s8)
a0805e58:	24420001 	addiu	v0,v0,1
a0805e5c:	afc2001c 	sw	v0,28(s8)
a0805e60:	afc00014 	sw	zero,20(s8)
a0805e64:	0820179e 	j	a0805e78 <test_shell+0x228>
a0805e68:	00000000 	nop
a0805e6c:	8fc20018 	lw	v0,24(s8)
a0805e70:	24420001 	addiu	v0,v0,1
a0805e74:	afc20018 	sw	v0,24(s8)
a0805e78:	8fc30018 	lw	v1,24(s8)
a0805e7c:	27c20010 	addiu	v0,s8,16
a0805e80:	00431021 	addu	v0,v0,v1
a0805e84:	80430014 	lb	v1,20(v0)
a0805e88:	24020020 	li	v0,32
a0805e8c:	14620006 	bne	v1,v0,a0805ea8 <test_shell+0x258>
a0805e90:	00000000 	nop
a0805e94:	8fc20018 	lw	v0,24(s8)
a0805e98:	8fc30020 	lw	v1,32(s8)
a0805e9c:	0043102b 	sltu	v0,v0,v1
a0805ea0:	1440fff2 	bnez	v0,a0805e6c <test_shell+0x21c>
a0805ea4:	00000000 	nop
a0805ea8:	8fc4001c 	lw	a0,28(s8)
a0805eac:	8fc50014 	lw	a1,20(s8)
a0805eb0:	8fc30018 	lw	v1,24(s8)
a0805eb4:	27c20010 	addiu	v0,s8,16
a0805eb8:	00431021 	addu	v0,v0,v1
a0805ebc:	80460014 	lb	a2,20(v0)
a0805ec0:	00801021 	move	v0,a0
a0805ec4:	00021100 	sll	v0,v0,0x4
a0805ec8:	00441023 	subu	v0,v0,a0
a0805ecc:	27c30010 	addiu	v1,s8,16
a0805ed0:	00621021 	addu	v0,v1,v0
a0805ed4:	00451021 	addu	v0,v0,a1
a0805ed8:	a0460028 	sb	a2,40(v0)
a0805edc:	8fc20014 	lw	v0,20(s8)
a0805ee0:	24420001 	addiu	v0,v0,1
a0805ee4:	afc20014 	sw	v0,20(s8)
a0805ee8:	8fc20018 	lw	v0,24(s8)
a0805eec:	24420001 	addiu	v0,v0,1
a0805ef0:	afc20018 	sw	v0,24(s8)
a0805ef4:	8fc20018 	lw	v0,24(s8)
a0805ef8:	8fc30020 	lw	v1,32(s8)
a0805efc:	0043102b 	sltu	v0,v0,v1
a0805f00:	1440ffc4 	bnez	v0,a0805e14 <test_shell+0x1c4>
a0805f04:	00000000 	nop
a0805f08:	27c20038 	addiu	v0,s8,56
a0805f0c:	8fc4001c 	lw	a0,28(s8)
a0805f10:	00402821 	move	a1,v0
a0805f14:	0c201666 	jal	a0805998 <process_cmd>
a0805f18:	00000000 	nop
a0805f1c:	afc00020 	sw	zero,32(s8)
a0805f20:	3c02a080 	lui	v0,0xa080
a0805f24:	24446638 	addiu	a0,v0,26168
a0805f28:	0c2015df 	jal	a080577c <printf>
a0805f2c:	00000000 	nop
a0805f30:	08201725 	j	a0805c94 <test_shell+0x44>
a0805f34:	00000000 	nop
	...

a0805f40 <drawing_task1>:
a0805f40:	27bdffe0 	addiu	sp,sp,-32
a0805f44:	afbf001c 	sw	ra,28(sp)
a0805f48:	afbe0018 	sw	s8,24(sp)
a0805f4c:	03a0f021 	move	s8,sp
a0805f50:	24020016 	li	v0,22
a0805f54:	afc20014 	sw	v0,20(s8)
a0805f58:	2402000a 	li	v0,10
a0805f5c:	afc20010 	sw	v0,16(s8)
a0805f60:	2402003c 	li	v0,60
a0805f64:	afc20014 	sw	v0,20(s8)
a0805f68:	0820180d 	j	a0806034 <drawing_task1+0xf4>
a0805f6c:	00000000 	nop
a0805f70:	8fc40014 	lw	a0,20(s8)
a0805f74:	8fc50010 	lw	a1,16(s8)
a0805f78:	0c201117 	jal	a080445c <sys_move_cursor>
a0805f7c:	00000000 	nop
a0805f80:	3c02a080 	lui	v0,0xa080
a0805f84:	24446650 	addiu	a0,v0,26192
a0805f88:	3c02a080 	lui	v0,0xa080
a0805f8c:	24456734 	addiu	a1,v0,26420
a0805f90:	0c2015df 	jal	a080577c <printf>
a0805f94:	00000000 	nop
a0805f98:	8fc20010 	lw	v0,16(s8)
a0805f9c:	24420001 	addiu	v0,v0,1
a0805fa0:	8fc40014 	lw	a0,20(s8)
a0805fa4:	00402821 	move	a1,v0
a0805fa8:	0c201117 	jal	a080445c <sys_move_cursor>
a0805fac:	00000000 	nop
a0805fb0:	3c02a080 	lui	v0,0xa080
a0805fb4:	24446650 	addiu	a0,v0,26192
a0805fb8:	3c02a080 	lui	v0,0xa080
a0805fbc:	24456748 	addiu	a1,v0,26440
a0805fc0:	0c2015df 	jal	a080577c <printf>
a0805fc4:	00000000 	nop
a0805fc8:	8fc20010 	lw	v0,16(s8)
a0805fcc:	24420002 	addiu	v0,v0,2
a0805fd0:	8fc40014 	lw	a0,20(s8)
a0805fd4:	00402821 	move	a1,v0
a0805fd8:	0c201117 	jal	a080445c <sys_move_cursor>
a0805fdc:	00000000 	nop
a0805fe0:	3c02a080 	lui	v0,0xa080
a0805fe4:	24446650 	addiu	a0,v0,26192
a0805fe8:	3c02a080 	lui	v0,0xa080
a0805fec:	2445675c 	addiu	a1,v0,26460
a0805ff0:	0c2015df 	jal	a080577c <printf>
a0805ff4:	00000000 	nop
a0805ff8:	8fc20010 	lw	v0,16(s8)
a0805ffc:	24420003 	addiu	v0,v0,3
a0806000:	8fc40014 	lw	a0,20(s8)
a0806004:	00402821 	move	a1,v0
a0806008:	0c201117 	jal	a080445c <sys_move_cursor>
a080600c:	00000000 	nop
a0806010:	3c02a080 	lui	v0,0xa080
a0806014:	24446650 	addiu	a0,v0,26192
a0806018:	3c02a080 	lui	v0,0xa080
a080601c:	24456770 	addiu	a1,v0,26480
a0806020:	0c2015df 	jal	a080577c <printf>
a0806024:	00000000 	nop
a0806028:	8fc20014 	lw	v0,20(s8)
a080602c:	2442ffff 	addiu	v0,v0,-1
a0806030:	afc20014 	sw	v0,20(s8)
a0806034:	8fc20014 	lw	v0,20(s8)
a0806038:	1c40ffcd 	bgtz	v0,a0805f70 <drawing_task1+0x30>
a080603c:	00000000 	nop
a0806040:	24040001 	li	a0,1
a0806044:	8fc50010 	lw	a1,16(s8)
a0806048:	0c201117 	jal	a080445c <sys_move_cursor>
a080604c:	00000000 	nop
a0806050:	3c02a080 	lui	v0,0xa080
a0806054:	24446650 	addiu	a0,v0,26192
a0806058:	3c02a080 	lui	v0,0xa080
a080605c:	24456720 	addiu	a1,v0,26400
a0806060:	0c2015df 	jal	a080577c <printf>
a0806064:	00000000 	nop
a0806068:	8fc20010 	lw	v0,16(s8)
a080606c:	24420001 	addiu	v0,v0,1
a0806070:	24040001 	li	a0,1
a0806074:	00402821 	move	a1,v0
a0806078:	0c201117 	jal	a080445c <sys_move_cursor>
a080607c:	00000000 	nop
a0806080:	3c02a080 	lui	v0,0xa080
a0806084:	24446650 	addiu	a0,v0,26192
a0806088:	3c02a080 	lui	v0,0xa080
a080608c:	24456720 	addiu	a1,v0,26400
a0806090:	0c2015df 	jal	a080577c <printf>
a0806094:	00000000 	nop
a0806098:	8fc20010 	lw	v0,16(s8)
a080609c:	24420002 	addiu	v0,v0,2
a08060a0:	24040001 	li	a0,1
a08060a4:	00402821 	move	a1,v0
a08060a8:	0c201117 	jal	a080445c <sys_move_cursor>
a08060ac:	00000000 	nop
a08060b0:	3c02a080 	lui	v0,0xa080
a08060b4:	24446650 	addiu	a0,v0,26192
a08060b8:	3c02a080 	lui	v0,0xa080
a08060bc:	24456720 	addiu	a1,v0,26400
a08060c0:	0c2015df 	jal	a080577c <printf>
a08060c4:	00000000 	nop
a08060c8:	8fc20010 	lw	v0,16(s8)
a08060cc:	24420003 	addiu	v0,v0,3
a08060d0:	24040001 	li	a0,1
a08060d4:	00402821 	move	a1,v0
a08060d8:	0c201117 	jal	a080445c <sys_move_cursor>
a08060dc:	00000000 	nop
a08060e0:	3c02a080 	lui	v0,0xa080
a08060e4:	24446650 	addiu	a0,v0,26192
a08060e8:	3c02a080 	lui	v0,0xa080
a08060ec:	24456720 	addiu	a1,v0,26400
a08060f0:	0c2015df 	jal	a080577c <printf>
a08060f4:	00000000 	nop
a08060f8:	082017d8 	j	a0805f60 <drawing_task1+0x20>
a08060fc:	00000000 	nop

a0806100 <rand>:
a0806100:	27bdffd8 	addiu	sp,sp,-40
a0806104:	afbf0024 	sw	ra,36(sp)
a0806108:	afbe0020 	sw	s8,32(sp)
a080610c:	03a0f021 	move	s8,sp
a0806110:	0c201062 	jal	a0804188 <get_timer>
a0806114:	00000000 	nop
a0806118:	afc20010 	sw	v0,16(s8)
a080611c:	8fc40010 	lw	a0,16(s8)
a0806120:	3c0214f8 	lui	v0,0x14f8
a0806124:	3442b589 	ori	v0,v0,0xb589
a0806128:	00820018 	mult	a0,v0
a080612c:	00001010 	mfhi	v0
a0806130:	00021b43 	sra	v1,v0,0xd
a0806134:	000417c3 	sra	v0,a0,0x1f
a0806138:	00621023 	subu	v0,v1,v0
a080613c:	afc20018 	sw	v0,24(s8)
a0806140:	8fc20018 	lw	v0,24(s8)
a0806144:	00021880 	sll	v1,v0,0x2
a0806148:	00031140 	sll	v0,v1,0x5
a080614c:	00431023 	subu	v0,v0,v1
a0806150:	8fc30018 	lw	v1,24(s8)
a0806154:	00431021 	addu	v0,v0,v1
a0806158:	00021880 	sll	v1,v0,0x2
a080615c:	00431021 	addu	v0,v0,v1
a0806160:	00021880 	sll	v1,v0,0x2
a0806164:	00431021 	addu	v0,v0,v1
a0806168:	00021140 	sll	v0,v0,0x5
a080616c:	00821023 	subu	v0,a0,v0
a0806170:	afc20018 	sw	v0,24(s8)
a0806174:	8fc20018 	lw	v0,24(s8)
a0806178:	03c0e821 	move	sp,s8
a080617c:	8fbf0024 	lw	ra,36(sp)
a0806180:	8fbe0020 	lw	s8,32(sp)
a0806184:	27bd0028 	addiu	sp,sp,40
a0806188:	03e00008 	jr	ra
a080618c:	00000000 	nop

a0806190 <rw_task1>:
a0806190:	27bdffa8 	addiu	sp,sp,-88
a0806194:	afbf0054 	sw	ra,84(sp)
a0806198:	afbe0050 	sw	s8,80(sp)
a080619c:	afb0004c 	sw	s0,76(sp)
a08061a0:	03a0f021 	move	s8,sp
a08061a4:	afc00018 	sw	zero,24(s8)
a08061a8:	afc00014 	sw	zero,20(s8)
a08061ac:	afc00010 	sw	zero,16(s8)
a08061b0:	3c022000 	lui	v0,0x2000
a08061b4:	34421000 	ori	v0,v0,0x1000
a08061b8:	afc2002c 	sw	v0,44(s8)
a08061bc:	3c022000 	lui	v0,0x2000
a08061c0:	34422000 	ori	v0,v0,0x2000
a08061c4:	afc20030 	sw	v0,48(s8)
a08061c8:	3c022000 	lui	v0,0x2000
a08061cc:	34423000 	ori	v0,v0,0x3000
a08061d0:	afc20034 	sw	v0,52(s8)
a08061d4:	3c022000 	lui	v0,0x2000
a08061d8:	34421000 	ori	v0,v0,0x1000
a08061dc:	afc20038 	sw	v0,56(s8)
a08061e0:	3c022000 	lui	v0,0x2000
a08061e4:	34422000 	ori	v0,v0,0x2000
a08061e8:	afc2003c 	sw	v0,60(s8)
a08061ec:	3c022000 	lui	v0,0x2000
a08061f0:	34423000 	ori	v0,v0,0x3000
a08061f4:	afc20040 	sw	v0,64(s8)
a08061f8:	afc00010 	sw	zero,16(s8)
a08061fc:	082018a3 	j	a080628c <rw_task1+0xfc>
a0806200:	00000000 	nop
a0806204:	8fc20010 	lw	v0,16(s8)
a0806208:	00021080 	sll	v0,v0,0x2
a080620c:	27c30010 	addiu	v1,s8,16
a0806210:	00621021 	addu	v0,v1,v0
a0806214:	8c42001c 	lw	v0,28(v0)
a0806218:	afc2001c 	sw	v0,28(s8)
a080621c:	8fc30014 	lw	v1,20(s8)
a0806220:	8fc20010 	lw	v0,16(s8)
a0806224:	00621021 	addu	v0,v1,v0
a0806228:	24040001 	li	a0,1
a080622c:	00402821 	move	a1,v0
a0806230:	0c201117 	jal	a080445c <sys_move_cursor>
a0806234:	00000000 	nop
a0806238:	8fd00010 	lw	s0,16(s8)
a080623c:	0c201840 	jal	a0806100 <rand>
a0806240:	00000000 	nop
a0806244:	afc20018 	sw	v0,24(s8)
a0806248:	00101080 	sll	v0,s0,0x2
a080624c:	27c30010 	addiu	v1,s8,16
a0806250:	00621021 	addu	v0,v1,v0
a0806254:	8fc30018 	lw	v1,24(s8)
a0806258:	ac430010 	sw	v1,16(v0)
a080625c:	8fc3001c 	lw	v1,28(s8)
a0806260:	8fc20018 	lw	v0,24(s8)
a0806264:	ac620000 	sw	v0,0(v1)
a0806268:	3c02a080 	lui	v0,0xa080
a080626c:	24446660 	addiu	a0,v0,26208
a0806270:	8fc5001c 	lw	a1,28(s8)
a0806274:	8fc60018 	lw	a2,24(s8)
a0806278:	0c2015df 	jal	a080577c <printf>
a080627c:	00000000 	nop
a0806280:	8fc20010 	lw	v0,16(s8)
a0806284:	24420001 	addiu	v0,v0,1
a0806288:	afc20010 	sw	v0,16(s8)
a080628c:	8fc20010 	lw	v0,16(s8)
a0806290:	28420003 	slti	v0,v0,3
a0806294:	1440ffdb 	bnez	v0,a0806204 <rw_task1+0x74>
a0806298:	00000000 	nop
a080629c:	24020003 	li	v0,3
a08062a0:	afc20014 	sw	v0,20(s8)
a08062a4:	afc00010 	sw	zero,16(s8)
a08062a8:	082018ea 	j	a08063a8 <rw_task1+0x218>
a08062ac:	00000000 	nop
a08062b0:	8fc20010 	lw	v0,16(s8)
a08062b4:	24420003 	addiu	v0,v0,3
a08062b8:	00021080 	sll	v0,v0,0x2
a08062bc:	27c30010 	addiu	v1,s8,16
a08062c0:	00621021 	addu	v0,v1,v0
a08062c4:	8c42001c 	lw	v0,28(v0)
a08062c8:	afc2001c 	sw	v0,28(s8)
a08062cc:	8fc30014 	lw	v1,20(s8)
a08062d0:	8fc20010 	lw	v0,16(s8)
a08062d4:	00621021 	addu	v0,v1,v0
a08062d8:	24040001 	li	a0,1
a08062dc:	00402821 	move	a1,v0
a08062e0:	0c201117 	jal	a080445c <sys_move_cursor>
a08062e4:	00000000 	nop
a08062e8:	8fc20010 	lw	v0,16(s8)
a08062ec:	24430003 	addiu	v1,v0,3
a08062f0:	8fc2001c 	lw	v0,28(s8)
a08062f4:	8c440000 	lw	a0,0(v0)
a08062f8:	00031080 	sll	v0,v1,0x2
a08062fc:	27c30010 	addiu	v1,s8,16
a0806300:	00621021 	addu	v0,v1,v0
a0806304:	ac440010 	sw	a0,16(v0)
a0806308:	8fc20010 	lw	v0,16(s8)
a080630c:	24420003 	addiu	v0,v0,3
a0806310:	00021080 	sll	v0,v0,0x2
a0806314:	27c30010 	addiu	v1,s8,16
a0806318:	00621021 	addu	v0,v1,v0
a080631c:	8c440010 	lw	a0,16(v0)
a0806320:	8fc20010 	lw	v0,16(s8)
a0806324:	00021080 	sll	v0,v0,0x2
a0806328:	27c30010 	addiu	v1,s8,16
a080632c:	00621021 	addu	v0,v1,v0
a0806330:	8c420010 	lw	v0,16(v0)
a0806334:	1482000e 	bne	a0,v0,a0806370 <rw_task1+0x1e0>
a0806338:	00000000 	nop
a080633c:	8fc20010 	lw	v0,16(s8)
a0806340:	24420003 	addiu	v0,v0,3
a0806344:	00021080 	sll	v0,v0,0x2
a0806348:	27c30010 	addiu	v1,s8,16
a080634c:	00621021 	addu	v0,v1,v0
a0806350:	8c430010 	lw	v1,16(v0)
a0806354:	3c02a080 	lui	v0,0xa080
a0806358:	24446670 	addiu	a0,v0,26224
a080635c:	00602821 	move	a1,v1
a0806360:	0c2015df 	jal	a080577c <printf>
a0806364:	00000000 	nop
a0806368:	082018e7 	j	a080639c <rw_task1+0x20c>
a080636c:	00000000 	nop
a0806370:	8fc20010 	lw	v0,16(s8)
a0806374:	24420003 	addiu	v0,v0,3
a0806378:	00021080 	sll	v0,v0,0x2
a080637c:	27c30010 	addiu	v1,s8,16
a0806380:	00621021 	addu	v0,v1,v0
a0806384:	8c430010 	lw	v1,16(v0)
a0806388:	3c02a080 	lui	v0,0xa080
a080638c:	24446684 	addiu	a0,v0,26244
a0806390:	00602821 	move	a1,v1
a0806394:	0c2015df 	jal	a080577c <printf>
a0806398:	00000000 	nop
a080639c:	8fc20010 	lw	v0,16(s8)
a08063a0:	24420001 	addiu	v0,v0,1
a08063a4:	afc20010 	sw	v0,16(s8)
a08063a8:	8fc20010 	lw	v0,16(s8)
a08063ac:	28420003 	slti	v0,v0,3
a08063b0:	1440ffbf 	bnez	v0,a08062b0 <rw_task1+0x120>
a08063b4:	00000000 	nop
a08063b8:	082018ee 	j	a08063b8 <rw_task1+0x228>
a08063bc:	00000000 	nop
a08063c0:	255b6325 	addiu	k1,t2,25381
a08063c4:	64253b64 	daddiu	a1,at,15204
a08063c8:	00000048 	0x48
a08063cc:	325b6325 	andi	k1,s2,0x6325
a08063d0:	0000004a 	0x4a
a08063d4:	3f5b6325 	0x3f5b6325
a08063d8:	006c3532 	tlt	v1,t4,0xd4
a08063dc:	00000000 	nop
a08063e0:	495b203e 	0x495b203e
a08063e4:	5d54494e 	0x5d54494e
a08063e8:	746e4920 	jalx	a1b92480 <__bbs_end+0x12b9e7c>
a08063ec:	75727265 	jalx	a5c9c994 <__bbs_end+0x53c4390>
a08063f0:	70207470 	0x70207470
a08063f4:	65636f72 	daddiu	v1,t3,28530
a08063f8:	6e697373 	ldr	t1,29555(s3)
a08063fc:	6e692067 	ldr	t1,8295(s3)
a0806400:	61697469 	daddi	t1,t3,29801
a0806404:	617a696c 	daddi	k0,t3,26988
a0806408:	6e6f6974 	ldr	t7,26996(s3)
a080640c:	63757320 	daddi	s5,k1,29472
a0806410:	64656563 	daddiu	a1,v1,25955
a0806414:	0a2e6465 	j	a8b99194 <__bbs_end+0x82c0b90>
a0806418:	00000000 	nop
a080641c:	495b203e 	0x495b203e
a0806420:	5d54494e 	0x5d54494e
a0806424:	72695620 	0x72695620
a0806428:	6c617574 	ldr	at,30068(v1)
a080642c:	6d656d20 	ldr	a1,27936(t3)
a0806430:	2079726f 	addi	t9,v1,29295
a0806434:	74696e69 	jalx	a1a5b9a4 <__bbs_end+0x11833a0>
a0806438:	696c6169 	ldl	t4,24937(t3)
a080643c:	6974617a 	ldl	s4,24954(t3)
a0806440:	73206e6f 	0x73206e6f
a0806444:	65636375 	daddiu	v1,t3,25461
a0806448:	64656465 	daddiu	a1,v1,25701
a080644c:	00000a2e 	0xa2e
a0806450:	495b203e 	0x495b203e
a0806454:	5d54494e 	0x5d54494e
a0806458:	73795320 	0x73795320
a080645c:	206d6574 	addi	t5,v1,25972
a0806460:	6c6c6163 	ldr	t4,24931(v1)
a0806464:	696e6920 	ldl	t6,26912(t3)
a0806468:	6c616974 	ldr	at,26996(v1)
a080646c:	64657a69 	daddiu	a1,v1,31337
a0806470:	63757320 	daddi	s5,k1,29472
a0806474:	73736563 	0x73736563
a0806478:	6c6c7566 	ldr	t4,30054(v1)
a080647c:	000a2e79 	0xa2e79
a0806480:	495b203e 	0x495b203e
a0806484:	5d54494e 	0x5d54494e
a0806488:	42435020 	c0	0x435020
a080648c:	696e6920 	ldl	t6,26912(t3)
a0806490:	6c616974 	ldr	at,26996(v1)
a0806494:	74617a69 	jalx	a185e9a4 <__bbs_end+0xf863a0>
a0806498:	206e6f69 	addi	t6,v1,28521
a080649c:	63637573 	daddi	v1,k1,30067
a08064a0:	65646565 	daddiu	a0,t3,25957
a08064a4:	000a2e64 	0xa2e64
a08064a8:	495b203e 	0x495b203e
a08064ac:	5d54494e 	0x5d54494e
a08064b0:	52435320 	beql	s2,v1,a081b134 <_gp+0xc934>
a08064b4:	204e4545 	addi	t6,v0,17733
a08064b8:	74696e69 	jalx	a1a5b9a4 <__bbs_end+0x11833a0>
a08064bc:	696c6169 	ldl	t4,24937(t3)
a08064c0:	6974617a 	ldl	s4,24954(t3)
a08064c4:	73206e6f 	0x73206e6f
a08064c8:	65636375 	daddiu	v1,t3,25461
a08064cc:	64656465 	daddiu	a1,v1,25701
a08064d0:	00000a2e 	0xa2e
	...
a08064e0:	2d2d2d2d 	sltiu	t5,t1,11565
a08064e4:	2d2d2d2d 	sltiu	t5,t1,11565
a08064e8:	2d2d2d2d 	sltiu	t5,t1,11565
a08064ec:	2d2d2d2d 	sltiu	t5,t1,11565
a08064f0:	2d2d2d2d 	sltiu	t5,t1,11565
a08064f4:	4d4f4320 	0x4d4f4320
a08064f8:	444e414d 	0x444e414d
a08064fc:	2d2d2d20 	sltiu	t5,t1,11552
a0806500:	2d2d2d2d 	sltiu	t5,t1,11565
a0806504:	2d2d2d2d 	sltiu	t5,t1,11565
a0806508:	2d2d2d2d 	sltiu	t5,t1,11565
a080650c:	2d2d2d2d 	sltiu	t5,t1,11565
a0806510:	00000a2d 	0xa2d
a0806514:	4f52505b 	c3	0x152505b
a0806518:	53534543 	beql	k0,s3,a0817a28 <_gp+0x9228>
a080651c:	42415420 	c0	0x415420
a0806520:	0a5d454c 	j	a9751530 <__bbs_end+0x8e78f2c>
a0806524:	00000000 	nop
a0806528:	5d64255b 	0x5d64255b
a080652c:	44495020 	0x44495020
a0806530:	6425203a 	daddiu	a1,at,8250
a0806534:	41545320 	0x41545320
a0806538:	3a535554 	xori	s3,s2,0x5554
a080653c:	4e555220 	c3	0x555220
a0806540:	474e494e 	c1	0x14e494e
a0806544:	0000000a 	0xa
a0806548:	5d64255b 	0x5d64255b
a080654c:	44495020 	0x44495020
a0806550:	6425203a 	daddiu	a1,at,8250
a0806554:	41545320 	0x41545320
a0806558:	3a535554 	xori	s3,s2,0x5554
a080655c:	4f4c4220 	c3	0x14c4220
a0806560:	44454b43 	0x44454b43
a0806564:	0000000a 	0xa
a0806568:	5d64255b 	0x5d64255b
a080656c:	44495020 	0x44495020
a0806570:	6425203a 	daddiu	a1,at,8250
a0806574:	41545320 	0x41545320
a0806578:	3a535554 	xori	s3,s2,0x5554
a080657c:	41455220 	0x41455220
a0806580:	000a5944 	0xa5944
	...
a0806590:	6b736174 	ldl	s3,24948(k1)
a0806594:	00000031 	tgeu	zero,zero
a0806598:	6b736174 	ldl	s3,24948(k1)
a080659c:	00000032 	tlt	zero,zero
a08065a0:	00007370 	tge	zero,zero,0x1cd
a08065a4:	61656c63 	daddi	a1,t3,27747
a08065a8:	00000072 	tlt	zero,zero,0x1
a08065ac:	74697865 	jalx	a1a5e194 <__bbs_end+0x1185b90>
a08065b0:	00000000 	nop
a08065b4:	6e6b6e55 	ldr	t3,28245(s3)
a08065b8:	206e776f 	addi	t6,v1,30575
a08065bc:	6d6d6f63 	ldr	t5,28515(t3)
a08065c0:	21646e61 	addi	a0,t3,28257
a08065c4:	0000000a 	0xa
a08065c8:	63657865 	daddi	a1,k1,30821
a08065cc:	00000000 	nop
a08065d0:	63657865 	daddi	a1,k1,30821
a08065d4:	6f727020 	ldr	s2,28704(k1)
a08065d8:	73736563 	0x73736563
a08065dc:	5d64255b 	0x5d64255b
a08065e0:	0000000a 	0xa
a08065e4:	6c6c696b 	ldr	t4,26987(v1)
a08065e8:	00000000 	nop
a08065ec:	000a6425 	0xa6425
a08065f0:	63657865 	daddi	a1,k1,30821
a08065f4:	6f727020 	ldr	s2,28704(k1)
a08065f8:	73736563 	0x73736563
a08065fc:	0a5d315b 	j	a974c56c <__bbs_end+0x8e73f68>
a0806600:	00000000 	nop
a0806604:	2d2d2d2d 	sltiu	t5,t1,11565
a0806608:	2d2d2d2d 	sltiu	t5,t1,11565
a080660c:	2d2d2d2d 	sltiu	t5,t1,11565
a0806610:	2d2d2d2d 	sltiu	t5,t1,11565
a0806614:	2d2d2d2d 	sltiu	t5,t1,11565
a0806618:	4d4f4320 	0x4d4f4320
a080661c:	444e414d 	0x444e414d
a0806620:	2d2d2d20 	sltiu	t5,t1,11552
a0806624:	2d2d2d2d 	sltiu	t5,t1,11565
a0806628:	2d2d2d2d 	sltiu	t5,t1,11565
a080662c:	2d2d2d2d 	sltiu	t5,t1,11565
a0806630:	2d2d2d2d 	sltiu	t5,t1,11565
a0806634:	00000a2d 	0xa2d
a0806638:	6f72203e 	ldr	s2,8254(k1)
a080663c:	5640746f 	bnezl	s2,a08237fc <_gp+0x14ffc>
a0806640:	65636e69 	daddiu	v1,t3,28265
a0806644:	4f20746e 	c3	0x120746e
a0806648:	00203a53 	0x203a53
a080664c:	00006325 	0x6325
a0806650:	00007325 	0x7325
	...
a0806660:	74697257 	jalx	a1a5c95c <__bbs_end+0x1184358>
a0806664:	30203a65 	andi	zero,at,0x3a65
a0806668:	2c782578 	sltiu	t8,v1,9592
a080666c:	00642520 	0x642520
a0806670:	64616552 	daddiu	at,v1,25938
a0806674:	63757320 	daddi	s5,k1,29472
a0806678:	64656563 	daddiu	a1,v1,25955
a080667c:	6425203a 	daddiu	a1,at,8250
a0806680:	00000000 	nop
a0806684:	64616552 	daddiu	at,v1,25938
a0806688:	72726520 	0x72726520
a080668c:	203a726f 	addi	k0,at,29295
a0806690:	00006425 	0x6425
	...
a08066a0:	fffffffe 	sd	ra,-2(ra)
	...
